
mojwsad.hex:     file format ihex


Disassembly of section .sec1:

00010000 <.sec1>:
   10000:	e10f0000 	mrs	r0, CPSR
   10004:	e220001a 	eor	r0, r0, #26
   10008:	e310001f 	tst	r0, #31
   1000c:	e3c0001f 	bic	r0, r0, #31
   10010:	e38000d3 	orr	r0, r0, #211	; 0xd3
   10014:	1a000004 	bne	0x1002c
   10018:	e3800c01 	orr	r0, r0, #256	; 0x100
   1001c:	e28fe00c 	add	lr, pc, #12
   10020:	e16ff000 	msr	SPSR_fsxc, r0
   10024:	e12ef30e 	msr	ELR_hyp, lr
   10028:	e160006e 	eret
   1002c:	e121f000 	msr	CPSR_c, r0
   10030:	f102001f 	cps	#31
   10034:	e3a0d98a 	mov	sp, #2260992	; 0x228000
   10038:	ea00001a 	b	0x100a8
   1003c:	f57ff04f 	dsb	sy
   10040:	e320f003 	wfi
   10044:	eafffffd 	b	0x10040
   10048:	e92d4008 	push	{r3, lr}
   1004c:	eb000038 	bl	0x10134
   10050:	e3500000 	cmp	r0, #0
   10054:	0a000002 	beq	0x10064
   10058:	eb000077 	bl	0x1023c
   1005c:	e3a03902 	mov	r3, #32768	; 0x8000
   10060:	e12fff13 	bx	r3
   10064:	e3a00000 	mov	r0, #0
   10068:	e8bd8008 	pop	{r3, pc}
   1006c:	f10c0080 	cpsid	i
   10070:	eafffffe 	b	0x10070
   10074:	e92d4008 	push	{r3, lr}
   10078:	f57ff05f 	dmb	sy
   1007c:	e3a00024 	mov	r0, #36	; 0x24
   10080:	e3430f10 	movt	r0, #16144	; 0x3f10
   10084:	e3a01001 	mov	r1, #1
   10088:	e3451a00 	movt	r1, #23040	; 0x5a00
   1008c:	eb0006a5 	bl	0x11b28
   10090:	e3a0001c 	mov	r0, #28
   10094:	e3430f10 	movt	r0, #16144	; 0x3f10
   10098:	e3a01020 	mov	r1, #32
   1009c:	e3451a00 	movt	r1, #23040	; 0x5a00
   100a0:	eb0006a0 	bl	0x11b28
   100a4:	eafffffe 	b	0x100a4
   100a8:	e92d4010 	push	{r4, lr}
   100ac:	eb000cd0 	bl	0x133f4
   100b0:	e300403c 	movw	r4, #60	; 0x3c
   100b4:	e3404001 	movt	r4, #1
   100b8:	e3a0009c 	mov	r0, #156	; 0x9c
   100bc:	e3440000 	movt	r0, #16384	; 0x4000
   100c0:	e1a01004 	mov	r1, r4
   100c4:	eb000697 	bl	0x11b28
   100c8:	e3a000ac 	mov	r0, #172	; 0xac
   100cc:	e3440000 	movt	r0, #16384	; 0x4000
   100d0:	e1a01004 	mov	r1, r4
   100d4:	eb000693 	bl	0x11b28
   100d8:	e3a000bc 	mov	r0, #188	; 0xbc
   100dc:	e3440000 	movt	r0, #16384	; 0x4000
   100e0:	e1a01004 	mov	r1, r4
   100e4:	eb00068f 	bl	0x11b28
   100e8:	e30522dc 	movw	r2, #21212	; 0x52dc
   100ec:	e3402001 	movt	r2, #1
   100f0:	e3053708 	movw	r3, #22280	; 0x5708
   100f4:	e3403001 	movt	r3, #1
   100f8:	e1520003 	cmp	r2, r3
   100fc:	2a000006 	bcs	0x1011c
   10100:	e1a03002 	mov	r3, r2
   10104:	e3a01000 	mov	r1, #0
   10108:	e3052708 	movw	r2, #22280	; 0x5708
   1010c:	e3402001 	movt	r2, #1
   10110:	e4c31001 	strb	r1, [r3], #1
   10114:	e1530002 	cmp	r3, r2
   10118:	1afffffc 	bne	0x10110
   1011c:	ebffffc9 	bl	0x10048
   10120:	e3500001 	cmp	r0, #1
   10124:	1a000000 	bne	0x1012c
   10128:	ebffffd1 	bl	0x10074
   1012c:	f10c0080 	cpsid	i
   10130:	eafffffe 	b	0x10130
   10134:	e92d4070 	push	{r4, r5, r6, lr}
   10138:	e30542e8 	movw	r4, #21224	; 0x52e8
   1013c:	e3404001 	movt	r4, #1
   10140:	e1a00004 	mov	r0, r4
   10144:	e3a01001 	mov	r1, #1
   10148:	eb0000b7 	bl	0x1042c
   1014c:	e2844010 	add	r4, r4, #16
   10150:	e1a00004 	mov	r0, r4
   10154:	e3a01000 	mov	r1, #0
   10158:	e1a02001 	mov	r2, r1
   1015c:	eb000673 	bl	0x11b30
   10160:	e1a00004 	mov	r0, r4
   10164:	eb00096f 	bl	0x12728
   10168:	e2504000 	subs	r4, r0, #0
   1016c:	1a000002 	bne	0x1017c
   10170:	e59f00c0 	ldr	r0, [pc, #192]	; 0x10238
   10174:	eb000680 	bl	0x11b7c
   10178:	ea00002c 	b	0x10230
   1017c:	e30542e8 	movw	r4, #21224	; 0x52e8
   10180:	e3404001 	movt	r4, #1
   10184:	e2845060 	add	r5, r4, #96	; 0x60
   10188:	e1a00005 	mov	r0, r5
   1018c:	eb00018f 	bl	0x107d0
   10190:	e1a00005 	mov	r0, r5
   10194:	eb00045a 	bl	0x11304
   10198:	e2846e2a 	add	r6, r4, #672	; 0x2a0
   1019c:	e1a00006 	mov	r0, r6
   101a0:	e1a01005 	mov	r1, r5
   101a4:	eb000cfa 	bl	0x13594
   101a8:	e2845054 	add	r5, r4, #84	; 0x54
   101ac:	e1a00005 	mov	r0, r5
   101b0:	e3a01004 	mov	r1, #4
   101b4:	e1a02006 	mov	r2, r6
   101b8:	eb000588 	bl	0x117e0
   101bc:	e1a00005 	mov	r0, r5
   101c0:	e2841010 	add	r1, r4, #16
   101c4:	eb00064b 	bl	0x11af8
   101c8:	e3500000 	cmp	r0, #0
   101cc:	0a000008 	beq	0x101f4
   101d0:	e2840060 	add	r0, r4, #96	; 0x60
   101d4:	eb000466 	bl	0x11374
   101d8:	e3500000 	cmp	r0, #0
   101dc:	0a000004 	beq	0x101f4
   101e0:	e1a00006 	mov	r0, r6
   101e4:	eb000e91 	bl	0x13c30
   101e8:	e3500000 	cmp	r0, #0
   101ec:	13a04001 	movne	r4, #1
   101f0:	1a00000e 	bne	0x10230
   101f4:	e30542e8 	movw	r4, #21224	; 0x52e8
   101f8:	e3404001 	movt	r4, #1
   101fc:	e2840054 	add	r0, r4, #84	; 0x54
   10200:	eb00057e 	bl	0x11800
   10204:	e2840e2a 	add	r0, r4, #672	; 0x2a0
   10208:	eb000d0a 	bl	0x13638
   1020c:	e2845060 	add	r5, r4, #96	; 0x60
   10210:	e1a00005 	mov	r0, r5
   10214:	eb000451 	bl	0x11360
   10218:	e1a00005 	mov	r0, r5
   1021c:	eb00019c 	bl	0x10894
   10220:	e2840010 	add	r0, r4, #16
   10224:	eb000654 	bl	0x11b7c
   10228:	e3a04000 	mov	r4, #0
   1022c:	eaffffff 	b	0x10230
   10230:	e1a00004 	mov	r0, r4
   10234:	e8bd8070 	pop	{r4, r5, r6, pc}
   10238:	000152f8 	strdeq	r5, [r1], -r8
   1023c:	e92d4038 	push	{r3, r4, r5, lr}
   10240:	e30542e8 	movw	r4, #21224	; 0x52e8
   10244:	e3404001 	movt	r4, #1
   10248:	e2840054 	add	r0, r4, #84	; 0x54
   1024c:	eb00056b 	bl	0x11800
   10250:	e2840e2a 	add	r0, r4, #672	; 0x2a0
   10254:	eb000cf7 	bl	0x13638
   10258:	e2845060 	add	r5, r4, #96	; 0x60
   1025c:	e1a00005 	mov	r0, r5
   10260:	eb00043e 	bl	0x11360
   10264:	e1a00005 	mov	r0, r5
   10268:	eb000189 	bl	0x10894
   1026c:	e2840010 	add	r0, r4, #16
   10270:	eb000641 	bl	0x11b7c
   10274:	e8bd8038 	pop	{r3, r4, r5, pc}
   10278:	e59f0000 	ldr	r0, [pc]	; 0x10280
   1027c:	e12fff1e 	bx	lr
   10280:	000152f8 	strdeq	r5, [r1], -r8
   10284:	e92d4038 	push	{r3, r4, r5, lr}
   10288:	e2504000 	subs	r4, r0, #0
   1028c:	1a000005 	bne	0x102a8
   10290:	e3040784 	movw	r0, #18308	; 0x4784
   10294:	e3400001 	movt	r0, #1
   10298:	e3041790 	movw	r1, #18320	; 0x4790
   1029c:	e3401001 	movt	r1, #1
   102a0:	e3a02058 	mov	r2, #88	; 0x58
   102a4:	eb0002e3 	bl	0x10e38
   102a8:	e5943000 	ldr	r3, [r4]
   102ac:	e3530000 	cmp	r3, #0
   102b0:	0a000005 	beq	0x102cc
   102b4:	ee113f10 	mrc	15, 0, r3, cr1, cr0, {0}
   102b8:	e3c33b06 	bic	r3, r3, #6144	; 0x1800
   102bc:	e3c33005 	bic	r3, r3, #5
   102c0:	ee013f10 	mcr	15, 0, r3, cr1, cr0, {0}
   102c4:	e3a03000 	mov	r3, #0
   102c8:	ee083f17 	mcr	15, 0, r3, cr8, cr7, {0}
   102cc:	e594000c 	ldr	r0, [r4, #12]
   102d0:	eb000121 	bl	0x1075c
   102d4:	e594000c 	ldr	r0, [r4, #12]
   102d8:	eb000262 	bl	0x10c68
   102dc:	e3a05000 	mov	r5, #0
   102e0:	e584500c 	str	r5, [r4, #12]
   102e4:	e5940008 	ldr	r0, [r4, #8]
   102e8:	eb00011b 	bl	0x1075c
   102ec:	e5940008 	ldr	r0, [r4, #8]
   102f0:	eb00025c 	bl	0x10c68
   102f4:	e5845008 	str	r5, [r4, #8]
   102f8:	e8bd8038 	pop	{r3, r4, r5, pc}
   102fc:	e92d4010 	push	{r4, lr}
   10300:	e2504000 	subs	r4, r0, #0
   10304:	1a000005 	bne	0x10320
   10308:	e3040784 	movw	r0, #18308	; 0x4784
   1030c:	e3400001 	movt	r0, #1
   10310:	e3041790 	movw	r1, #18320	; 0x4790
   10314:	e3401001 	movt	r1, #1
   10318:	e3a02071 	mov	r2, #113	; 0x71
   1031c:	eb0002c5 	bl	0x10e38
   10320:	e5940004 	ldr	r0, [r4, #4]
   10324:	e8bd8010 	pop	{r4, pc}
   10328:	e92d4010 	push	{r4, lr}
   1032c:	e2504000 	subs	r4, r0, #0
   10330:	1a000005 	bne	0x1034c
   10334:	e3040784 	movw	r0, #18308	; 0x4784
   10338:	e3400001 	movt	r0, #1
   1033c:	e3041790 	movw	r1, #18320	; 0x4790
   10340:	e3401001 	movt	r1, #1
   10344:	e3a02078 	mov	r2, #120	; 0x78
   10348:	eb0002ba 	bl	0x10e38
   1034c:	e5943000 	ldr	r3, [r4]
   10350:	e3530000 	cmp	r3, #0
   10354:	1a000005 	bne	0x10370
   10358:	e304079c 	movw	r0, #18332	; 0x479c
   1035c:	e3400001 	movt	r0, #1
   10360:	e3041790 	movw	r1, #18320	; 0x4790
   10364:	e3401001 	movt	r1, #1
   10368:	e3a0207a 	mov	r2, #122	; 0x7a
   1036c:	eb0002b1 	bl	0x10e38
   10370:	ee113f30 	mrc	15, 0, r3, cr1, cr0, {1}
   10374:	e3833040 	orr	r3, r3, #64	; 0x40
   10378:	ee013f30 	mcr	15, 0, r3, cr1, cr0, {1}
   1037c:	ee103f70 	mrc	15, 0, r3, cr0, cr0, {3}
   10380:	e3130001 	tst	r3, #1
   10384:	0a000005 	beq	0x103a0
   10388:	e30407b0 	movw	r0, #18352	; 0x47b0
   1038c:	e3400001 	movt	r0, #1
   10390:	e3041790 	movw	r1, #18320	; 0x4790
   10394:	e3401001 	movt	r1, #1
   10398:	e3a02087 	mov	r2, #135	; 0x87
   1039c:	eb0002a5 	bl	0x10e38
   103a0:	e3a03002 	mov	r3, #2
   103a4:	ee023f50 	mcr	15, 0, r3, cr2, cr0, {2}
   103a8:	e5943008 	ldr	r3, [r4, #8]
   103ac:	e3530000 	cmp	r3, #0
   103b0:	1a000005 	bne	0x103cc
   103b4:	e30407dc 	movw	r0, #18396	; 0x47dc
   103b8:	e3400001 	movt	r0, #1
   103bc:	e3041790 	movw	r1, #18320	; 0x4790
   103c0:	e3401001 	movt	r1, #1
   103c4:	e3a0208d 	mov	r2, #141	; 0x8d
   103c8:	eb00029a 	bl	0x10e38
   103cc:	e5940008 	ldr	r0, [r4, #8]
   103d0:	eb0000f2 	bl	0x107a0
   103d4:	ee020f10 	mcr	15, 0, r0, cr2, cr0, {0}
   103d8:	e594300c 	ldr	r3, [r4, #12]
   103dc:	e3530000 	cmp	r3, #0
   103e0:	1a000005 	bne	0x103fc
   103e4:	e3040800 	movw	r0, #18432	; 0x4800
   103e8:	e3400001 	movt	r0, #1
   103ec:	e3041790 	movw	r1, #18320	; 0x4790
   103f0:	e3401001 	movt	r1, #1
   103f4:	e3a02091 	mov	r2, #145	; 0x91
   103f8:	eb00028e 	bl	0x10e38
   103fc:	e594000c 	ldr	r0, [r4, #12]
   10400:	eb0000e6 	bl	0x107a0
   10404:	ee020f30 	mcr	15, 0, r0, cr2, cr0, {1}
   10408:	e3a03005 	mov	r3, #5
   1040c:	ee033f10 	mcr	15, 0, r3, cr3, cr0, {0}
   10410:	eb000bf7 	bl	0x133f4
   10414:	f57ff06f 	isb	sy
   10418:	ee113f10 	mrc	15, 0, r3, cr1, cr0, {0}
   1041c:	e3833b06 	orr	r3, r3, #6144	; 0x1800
   10420:	e3833005 	orr	r3, r3, #5
   10424:	ee013f10 	mcr	15, 0, r3, cr1, cr0, {0}
   10428:	e8bd8010 	pop	{r4, pc}
   1042c:	e92d4030 	push	{r4, r5, lr}
   10430:	e24dd024 	sub	sp, sp, #36	; 0x24
   10434:	e1a05001 	mov	r5, r1
   10438:	e2504000 	subs	r4, r0, #0
   1043c:	1a000005 	bne	0x10458
   10440:	e3040784 	movw	r0, #18308	; 0x4784
   10444:	e3400001 	movt	r0, #1
   10448:	e3041790 	movw	r1, #18320	; 0x4790
   1044c:	e3401001 	movt	r1, #1
   10450:	e3a02031 	mov	r2, #49	; 0x31
   10454:	eb000277 	bl	0x10e38
   10458:	e5845000 	str	r5, [r4]
   1045c:	e3a05000 	mov	r5, #0
   10460:	e5845004 	str	r5, [r4, #4]
   10464:	e5845008 	str	r5, [r4, #8]
   10468:	e584500c 	str	r5, [r4, #12]
   1046c:	e28d001c 	add	r0, sp, #28
   10470:	eb000292 	bl	0x10ec0
   10474:	e58d5000 	str	r5, [sp]
   10478:	e28d001c 	add	r0, sp, #28
   1047c:	e3a01005 	mov	r1, #5
   10480:	e3401001 	movt	r1, #1
   10484:	e28d2008 	add	r2, sp, #8
   10488:	e3a03014 	mov	r3, #20
   1048c:	eb0002a4 	bl	0x10f24
   10490:	e1500005 	cmp	r0, r5
   10494:	01a03005 	moveq	r3, r5
   10498:	058d3014 	streq	r3, [sp, #20]
   1049c:	03a03303 	moveq	r3, #201326592	; 0xc000000
   104a0:	058d3018 	streq	r3, [sp, #24]
   104a4:	e59d3014 	ldr	r3, [sp, #20]
   104a8:	e3530000 	cmp	r3, #0
   104ac:	0a000005 	beq	0x104c8
   104b0:	e304081c 	movw	r0, #18460	; 0x481c
   104b4:	e3400001 	movt	r0, #1
   104b8:	e3041790 	movw	r1, #18320	; 0x4790
   104bc:	e3401001 	movt	r1, #1
   104c0:	e3a02041 	mov	r2, #65	; 0x41
   104c4:	eb00025b 	bl	0x10e38
   104c8:	e59d1018 	ldr	r1, [sp, #24]
   104cc:	e5841004 	str	r1, [r4, #4]
   104d0:	e59d0014 	ldr	r0, [sp, #20]
   104d4:	eb00016c 	bl	0x10a8c
   104d8:	e5943000 	ldr	r3, [r4]
   104dc:	e3530000 	cmp	r3, #0
   104e0:	0a00001c 	beq	0x10558
   104e4:	e3a00008 	mov	r0, #8
   104e8:	eb000182 	bl	0x10af8
   104ec:	e5840008 	str	r0, [r4, #8]
   104f0:	e3500000 	cmp	r0, #0
   104f4:	1a000005 	bne	0x10510
   104f8:	e30407dc 	movw	r0, #18396	; 0x47dc
   104fc:	e3400001 	movt	r0, #1
   10500:	e3041790 	movw	r1, #18320	; 0x4790
   10504:	e3401001 	movt	r1, #1
   10508:	e3a02049 	mov	r2, #73	; 0x49
   1050c:	eb000249 	bl	0x10e38
   10510:	e5940008 	ldr	r0, [r4, #8]
   10514:	e5941004 	ldr	r1, [r4, #4]
   10518:	eb000040 	bl	0x10620
   1051c:	e3a00008 	mov	r0, #8
   10520:	eb000174 	bl	0x10af8
   10524:	e584000c 	str	r0, [r4, #12]
   10528:	e3500000 	cmp	r0, #0
   1052c:	1a000005 	bne	0x10548
   10530:	e3040800 	movw	r0, #18432	; 0x4800
   10534:	e3400001 	movt	r0, #1
   10538:	e3041790 	movw	r1, #18320	; 0x4790
   1053c:	e3401001 	movt	r1, #1
   10540:	e3a0204d 	mov	r2, #77	; 0x4d
   10544:	eb00023b 	bl	0x10e38
   10548:	e594000c 	ldr	r0, [r4, #12]
   1054c:	eb000005 	bl	0x10568
   10550:	e1a00004 	mov	r0, r4
   10554:	ebffff73 	bl	0x10328
   10558:	e28d001c 	add	r0, sp, #28
   1055c:	eb000264 	bl	0x10ef4
   10560:	e28dd024 	add	sp, sp, #36	; 0x24
   10564:	e8bd8030 	pop	{r4, r5, pc}
   10568:	e92d4070 	push	{r4, r5, r6, lr}
   1056c:	e2504000 	subs	r4, r0, #0
   10570:	1a000005 	bne	0x1058c
   10574:	e3040784 	movw	r0, #18308	; 0x4784
   10578:	e3400001 	movt	r0, #1
   1057c:	e3041838 	movw	r1, #18488	; 0x4838
   10580:	e3401001 	movt	r1, #1
   10584:	e3a02029 	mov	r2, #41	; 0x29
   10588:	eb00022a 	bl	0x10e38
   1058c:	e3a03000 	mov	r3, #0
   10590:	e5843000 	str	r3, [r4]
   10594:	e3a0298e 	mov	r2, #2326528	; 0x238000
   10598:	e5842004 	str	r2, [r4, #4]
   1059c:	e3a0e002 	mov	lr, #2
   105a0:	e3a0c001 	mov	ip, #1
   105a4:	e5941004 	ldr	r1, [r4, #4]
   105a8:	e0810103 	add	r0, r1, r3, lsl #2
   105ac:	e7d12103 	ldrb	r2, [r1, r3, lsl #2]
   105b0:	e7c1201e 	bfi	r2, lr, #0, #2
   105b4:	e6ef2072 	uxtb	r2, r2
   105b8:	e3822004 	orr	r2, r2, #4
   105bc:	e2022007 	and	r2, r2, #7
   105c0:	e7c12103 	strb	r2, [r1, r3, lsl #2]
   105c4:	e5d02001 	ldrb	r2, [r0, #1]
   105c8:	e20220fc 	and	r2, r2, #252	; 0xfc
   105cc:	e7c3211c 	bfi	r2, ip, #2, #2
   105d0:	e202208f 	and	r2, r2, #143	; 0x8f
   105d4:	e7c7239f 	bfc	r2, #7, #1
   105d8:	e5c02001 	strb	r2, [r0, #1]
   105dc:	e7eb2053 	ubfx	r2, r3, #0, #12
   105e0:	e202600f 	and	r6, r2, #15
   105e4:	e3a05001 	mov	r5, #1
   105e8:	e1855206 	orr	r5, r5, r6, lsl #4
   105ec:	e5c05002 	strb	r5, [r0, #2]
   105f0:	e1a02222 	lsr	r2, r2, #4
   105f4:	e5c02003 	strb	r2, [r0, #3]
   105f8:	e3530b01 	cmp	r3, #1024	; 0x400
   105fc:	27d12103 	ldrbcs	r2, [r1, r3, lsl #2]
   10600:	23822010 	orrcs	r2, r2, #16
   10604:	27c12103 	strbcs	r2, [r1, r3, lsl #2]
   10608:	e2833001 	add	r3, r3, #1
   1060c:	e3530a01 	cmp	r3, #4096	; 0x1000
   10610:	1affffe3 	bne	0x105a4
   10614:	eb000b98 	bl	0x1347c
   10618:	f57ff04f 	dsb	sy
   1061c:	e8bd8070 	pop	{r4, r5, r6, pc}
   10620:	e92d41f0 	push	{r4, r5, r6, r7, r8, lr}
   10624:	e1a05001 	mov	r5, r1
   10628:	e2504000 	subs	r4, r0, #0
   1062c:	1a000005 	bne	0x10648
   10630:	e3040784 	movw	r0, #18308	; 0x4784
   10634:	e3400001 	movt	r0, #1
   10638:	e3041838 	movw	r1, #18488	; 0x4838
   1063c:	e3401001 	movt	r1, #1
   10640:	e3a02052 	mov	r2, #82	; 0x52
   10644:	eb0001fb 	bl	0x10e38
   10648:	e3a03001 	mov	r3, #1
   1064c:	e5843000 	str	r3, [r4]
   10650:	eb0001b2 	bl	0x10d20
   10654:	e5840004 	str	r0, [r4, #4]
   10658:	e3500000 	cmp	r0, #0
   1065c:	1a000005 	bne	0x10678
   10660:	e3040844 	movw	r0, #18500	; 0x4844
   10664:	e3400001 	movt	r0, #1
   10668:	e3041838 	movw	r1, #18488	; 0x4838
   1066c:	e3401001 	movt	r1, #1
   10670:	e3a02057 	mov	r2, #87	; 0x57
   10674:	eb0001ef 	bl	0x10e38
   10678:	e5943004 	ldr	r3, [r4, #4]
   1067c:	e7eb3053 	ubfx	r3, r3, #0, #12
   10680:	e3530000 	cmp	r3, #0
   10684:	0a00002d 	beq	0x10740
   10688:	e304085c 	movw	r0, #18524	; 0x485c
   1068c:	e3400001 	movt	r0, #1
   10690:	e3041838 	movw	r1, #18488	; 0x4838
   10694:	e3401001 	movt	r1, #1
   10698:	e3a02058 	mov	r2, #88	; 0x58
   1069c:	eb0001e5 	bl	0x10e38
   106a0:	ea000026 	b	0x10740
   106a4:	e5940004 	ldr	r0, [r4, #4]
   106a8:	e0801002 	add	r1, r0, r2
   106ac:	e7d03002 	ldrb	r3, [r0, r2]
   106b0:	e7c13017 	bfi	r3, r7, #0, #2
   106b4:	e6ef3073 	uxtb	r3, r3
   106b8:	e383300c 	orr	r3, r3, #12
   106bc:	e203300f 	and	r3, r3, #15
   106c0:	e7c03002 	strb	r3, [r0, r2]
   106c4:	e5d13001 	ldrb	r3, [r1, #1]
   106c8:	e20330fc 	and	r3, r3, #252	; 0xfc
   106cc:	e7c33116 	bfi	r3, r6, #2, #2
   106d0:	e203308f 	and	r3, r3, #143	; 0x8f
   106d4:	e7c7339f 	bfc	r3, #7, #1
   106d8:	e5c13001 	strb	r3, [r1, #1]
   106dc:	e1a03a2c 	lsr	r3, ip, #20
   106e0:	e1a08203 	lsl	r8, r3, #4
   106e4:	e5c18002 	strb	r8, [r1, #2]
   106e8:	e1a03223 	lsr	r3, r3, #4
   106ec:	e5c13003 	strb	r3, [r1, #3]
   106f0:	e15c000e 	cmp	ip, lr
   106f4:	3a00000a 	bcc	0x10724
   106f8:	e7d03002 	ldrb	r3, [r0, r2]
   106fc:	e3833010 	orr	r3, r3, #16
   10700:	e7c03002 	strb	r3, [r0, r2]
   10704:	e155000c 	cmp	r5, ip
   10708:	8a000005 	bhi	0x10724
   1070c:	e6ef3073 	uxtb	r3, r3
   10710:	e7c3319f 	bfc	r3, #3, #1
   10714:	e5c13000 	strb	r3, [r1]
   10718:	e5d13002 	ldrb	r3, [r1, #2]
   1071c:	e3833001 	orr	r3, r3, #1
   10720:	e5c13002 	strb	r3, [r1, #2]
   10724:	e2822004 	add	r2, r2, #4
   10728:	e28cc601 	add	ip, ip, #1048576	; 0x100000
   1072c:	e3520a01 	cmp	r2, #4096	; 0x1000
   10730:	1affffdb 	bne	0x106a4
   10734:	eb000b50 	bl	0x1347c
   10738:	f57ff04f 	dsb	sy
   1073c:	e8bd81f0 	pop	{r4, r5, r6, r7, r8, pc}
   10740:	e3a0c000 	mov	ip, #0
   10744:	e1a0200c 	mov	r2, ip
   10748:	e3a07002 	mov	r7, #2
   1074c:	e3a06001 	mov	r6, #1
   10750:	e304e784 	movw	lr, #18308	; 0x4784
   10754:	e340e001 	movt	lr, #1
   10758:	eaffffd1 	b	0x106a4
   1075c:	e92d4010 	push	{r4, lr}
   10760:	e2504000 	subs	r4, r0, #0
   10764:	1a000005 	bne	0x10780
   10768:	e3040784 	movw	r0, #18308	; 0x4784
   1076c:	e3400001 	movt	r0, #1
   10770:	e3041838 	movw	r1, #18488	; 0x4838
   10774:	e3401001 	movt	r1, #1
   10778:	e3a02090 	mov	r2, #144	; 0x90
   1077c:	eb0001ad 	bl	0x10e38
   10780:	e5943000 	ldr	r3, [r4]
   10784:	e3530000 	cmp	r3, #0
   10788:	08bd8010 	popeq	{r4, pc}
   1078c:	e5940004 	ldr	r0, [r4, #4]
   10790:	eb000194 	bl	0x10de8
   10794:	e3a03000 	mov	r3, #0
   10798:	e5843004 	str	r3, [r4, #4]
   1079c:	e8bd8010 	pop	{r4, pc}
   107a0:	e92d4010 	push	{r4, lr}
   107a4:	e2504000 	subs	r4, r0, #0
   107a8:	1a000005 	bne	0x107c4
   107ac:	e3040784 	movw	r0, #18308	; 0x4784
   107b0:	e3400001 	movt	r0, #1
   107b4:	e3041838 	movw	r1, #18488	; 0x4838
   107b8:	e3401001 	movt	r1, #1
   107bc:	e3a0209b 	mov	r2, #155	; 0x9b
   107c0:	eb00019c 	bl	0x10e38
   107c4:	e5940004 	ldr	r0, [r4, #4]
   107c8:	e3800059 	orr	r0, r0, #89	; 0x59
   107cc:	e8bd8010 	pop	{r4, pc}
   107d0:	e92d4010 	push	{r4, lr}
   107d4:	e2504000 	subs	r4, r0, #0
   107d8:	1a000005 	bne	0x107f4
   107dc:	e3040784 	movw	r0, #18308	; 0x4784
   107e0:	e3400001 	movt	r0, #1
   107e4:	e304189c 	movw	r1, #18588	; 0x489c
   107e8:	e3401001 	movt	r1, #1
   107ec:	e3a02029 	mov	r2, #41	; 0x29
   107f0:	eb000190 	bl	0x10e38
   107f4:	e30536dc 	movw	r3, #22236	; 0x56dc
   107f8:	e3403001 	movt	r3, #1
   107fc:	e5933000 	ldr	r3, [r3]
   10800:	e3530000 	cmp	r3, #0
   10804:	0a000005 	beq	0x10820
   10808:	e30408b0 	movw	r0, #18608	; 0x48b0
   1080c:	e3400001 	movt	r0, #1
   10810:	e304189c 	movw	r1, #18588	; 0x489c
   10814:	e3401001 	movt	r1, #1
   10818:	e3a0202b 	mov	r2, #43	; 0x2b
   1081c:	eb000185 	bl	0x10e38
   10820:	e30536dc 	movw	r3, #22236	; 0x56dc
   10824:	e3403001 	movt	r3, #1
   10828:	e5834000 	str	r4, [r3]
   1082c:	e3a04000 	mov	r4, #0
   10830:	e59f3050 	ldr	r3, [pc, #80]	; 0x10888
   10834:	e1a03143 	asr	r3, r3, #2
   10838:	e2433002 	sub	r3, r3, #2
   1083c:	e38334ea 	orr	r3, r3, #-369098752	; 0xea000000
   10840:	e5843004 	str	r3, [r4, #4]
   10844:	e59f3040 	ldr	r3, [pc, #64]	; 0x1088c
   10848:	e1a03143 	asr	r3, r3, #2
   1084c:	e2433002 	sub	r3, r3, #2
   10850:	e38334ea 	orr	r3, r3, #-369098752	; 0xea000000
   10854:	e584300c 	str	r3, [r4, #12]
   10858:	e59f3030 	ldr	r3, [pc, #48]	; 0x10890
   1085c:	e1a03143 	asr	r3, r3, #2
   10860:	e2433002 	sub	r3, r3, #2
   10864:	e38334ea 	orr	r3, r3, #-369098752	; 0xea000000
   10868:	e5843010 	str	r3, [r4, #16]
   1086c:	eb000b02 	bl	0x1347c
   10870:	f57ff04f 	dsb	sy
   10874:	ee074f15 	mcr	15, 0, r4, cr7, cr5, {0}
   10878:	ee074fd5 	mcr	15, 0, r4, cr7, cr5, {6}
   1087c:	f57ff04f 	dsb	sy
   10880:	f57ff06f 	isb	sy
   10884:	e8bd8010 	pop	{r4, pc}
   10888:	00011220 	andeq	r1, r1, r0, lsr #4
   1088c:	0001125c 	andeq	r1, r1, ip, asr r2
   10890:	0001129c 	muleq	r1, ip, r2
   10894:	e92d4008 	push	{r3, lr}
   10898:	e3500000 	cmp	r0, #0
   1089c:	1a000005 	bne	0x108b8
   108a0:	e3040784 	movw	r0, #18308	; 0x4784
   108a4:	e3400001 	movt	r0, #1
   108a8:	e304189c 	movw	r1, #18588	; 0x489c
   108ac:	e3401001 	movt	r1, #1
   108b0:	e3a02044 	mov	r2, #68	; 0x44
   108b4:	eb00015f 	bl	0x10e38
   108b8:	e30536dc 	movw	r3, #22236	; 0x56dc
   108bc:	e3403001 	movt	r3, #1
   108c0:	e3a02000 	mov	r2, #0
   108c4:	e5832000 	str	r2, [r3]
   108c8:	e8bd8008 	pop	{r3, pc}
   108cc:	e92d4010 	push	{r4, lr}
   108d0:	e24dd008 	sub	sp, sp, #8
   108d4:	e1a04001 	mov	r4, r1
   108d8:	e3500000 	cmp	r0, #0
   108dc:	1a000005 	bne	0x108f8
   108e0:	e3040784 	movw	r0, #18308	; 0x4784
   108e4:	e3400001 	movt	r0, #1
   108e8:	e304189c 	movw	r1, #18588	; 0x489c
   108ec:	e3401001 	movt	r1, #1
   108f0:	e3a0204b 	mov	r2, #75	; 0x4b
   108f4:	eb00014f 	bl	0x10e38
   108f8:	eb0003c7 	bl	0x1181c
   108fc:	e3041884 	movw	r1, #18564	; 0x4884
   10900:	e3401001 	movt	r1, #1
   10904:	e0814104 	add	r4, r1, r4, lsl #2
   10908:	e5943008 	ldr	r3, [r4, #8]
   1090c:	e58d3000 	str	r3, [sp]
   10910:	e3a02000 	mov	r2, #0
   10914:	e30438c0 	movw	r3, #18624	; 0x48c0
   10918:	e3403001 	movt	r3, #1
   1091c:	eb000469 	bl	0x11ac8
   10920:	e28dd008 	add	sp, sp, #8
   10924:	e8bd8010 	pop	{r4, pc}
   10928:	e92d47f0 	push	{r4, r5, r6, r7, r8, r9, sl, lr}
   1092c:	e24dd020 	sub	sp, sp, #32
   10930:	e1a06001 	mov	r6, r1
   10934:	e1a04002 	mov	r4, r2
   10938:	e3500000 	cmp	r0, #0
   1093c:	1a000005 	bne	0x10958
   10940:	e3040784 	movw	r0, #18308	; 0x4784
   10944:	e3400001 	movt	r0, #1
   10948:	e304189c 	movw	r1, #18588	; 0x489c
   1094c:	e3401001 	movt	r1, #1
   10950:	e3a02052 	mov	r2, #82	; 0x52
   10954:	eb000137 	bl	0x10e38
   10958:	e3560002 	cmp	r6, #2
   1095c:	0a000002 	beq	0x1096c
   10960:	e3560003 	cmp	r6, #3
   10964:	0a000003 	beq	0x10978
   10968:	ea000005 	b	0x10984
   1096c:	ee15af30 	mrc	15, 0, sl, cr5, cr0, {1}
   10970:	ee169f50 	mrc	15, 0, r9, cr6, cr0, {2}
   10974:	ea000004 	b	0x1098c
   10978:	ee15af10 	mrc	15, 0, sl, cr5, cr0, {0}
   1097c:	ee169f10 	mrc	15, 0, r9, cr6, cr0, {0}
   10980:	ea000001 	b	0x1098c
   10984:	e3a09000 	mov	r9, #0
   10988:	e1a0a009 	mov	sl, r9
   1098c:	e3540000 	cmp	r4, #0
   10990:	1a000005 	bne	0x109ac
   10994:	e30408d0 	movw	r0, #18640	; 0x48d0
   10998:	e3400001 	movt	r0, #1
   1099c:	e304189c 	movw	r1, #18588	; 0x489c
   109a0:	e3401001 	movt	r1, #1
   109a4:	e3a02065 	mov	r2, #101	; 0x65
   109a8:	eb000122 	bl	0x10e38
   109ac:	e5948040 	ldr	r8, [r4, #64]	; 0x40
   109b0:	e594703c 	ldr	r7, [r4, #60]	; 0x3c
   109b4:	e5943044 	ldr	r3, [r4, #68]	; 0x44
   109b8:	e203301f 	and	r3, r3, #31
   109bc:	e3530012 	cmp	r3, #18
   109c0:	05948004 	ldreq	r8, [r4, #4]
   109c4:	05947000 	ldreq	r7, [r4]
   109c8:	e3045884 	movw	r5, #18564	; 0x4884
   109cc:	e3405001 	movt	r5, #1
   109d0:	e1a00007 	mov	r0, r7
   109d4:	e1a01005 	mov	r1, r5
   109d8:	eb0001f0 	bl	0x111a0
   109dc:	eb00038e 	bl	0x1181c
   109e0:	e0856106 	add	r6, r5, r6, lsl #2
   109e4:	e5963008 	ldr	r3, [r6, #8]
   109e8:	e58d3000 	str	r3, [sp]
   109ec:	e5943048 	ldr	r3, [r4, #72]	; 0x48
   109f0:	e58d3004 	str	r3, [sp, #4]
   109f4:	e58da008 	str	sl, [sp, #8]
   109f8:	e58d900c 	str	r9, [sp, #12]
   109fc:	e58d7010 	str	r7, [sp, #16]
   10a00:	e58d8014 	str	r8, [sp, #20]
   10a04:	e5943044 	ldr	r3, [r4, #68]	; 0x44
   10a08:	e58d3018 	str	r3, [sp, #24]
   10a0c:	e1a01005 	mov	r1, r5
   10a10:	e3a02000 	mov	r2, #0
   10a14:	e30438dc 	movw	r3, #18652	; 0x48dc
   10a18:	e3403001 	movt	r3, #1
   10a1c:	eb000429 	bl	0x11ac8
   10a20:	e28dd020 	add	sp, sp, #32
   10a24:	e8bd87f0 	pop	{r4, r5, r6, r7, r8, r9, sl, pc}
   10a28:	e92d4008 	push	{r3, lr}
   10a2c:	e30536dc 	movw	r3, #22236	; 0x56dc
   10a30:	e3403001 	movt	r3, #1
   10a34:	e5933000 	ldr	r3, [r3]
   10a38:	e3530000 	cmp	r3, #0
   10a3c:	1a000005 	bne	0x10a58
   10a40:	e304091c 	movw	r0, #18716	; 0x491c
   10a44:	e3400001 	movt	r0, #1
   10a48:	e304189c 	movw	r1, #18588	; 0x489c
   10a4c:	e3401001 	movt	r1, #1
   10a50:	e3a0207c 	mov	r2, #124	; 0x7c
   10a54:	eb0000f7 	bl	0x10e38
   10a58:	e30536dc 	movw	r3, #22236	; 0x56dc
   10a5c:	e3403001 	movt	r3, #1
   10a60:	e5930000 	ldr	r0, [r3]
   10a64:	e8bd8008 	pop	{r3, pc}
   10a68:	e92d4038 	push	{r3, r4, r5, lr}
   10a6c:	e1a05000 	mov	r5, r0
   10a70:	e1a04001 	mov	r4, r1
   10a74:	f57ff05f 	dmb	sy
   10a78:	ebffffea 	bl	0x10a28
   10a7c:	e1a01005 	mov	r1, r5
   10a80:	e1a02004 	mov	r2, r4
   10a84:	ebffffa7 	bl	0x10928
   10a88:	e8bd8038 	pop	{r3, r4, r5, pc}
   10a8c:	e0801001 	add	r1, r0, r1
   10a90:	e30f3fff 	movw	r3, #65535	; 0xffff
   10a94:	e340303f 	movt	r3, #63	; 0x3f
   10a98:	e1500003 	cmp	r0, r3
   10a9c:	93a00501 	movls	r0, #4194304	; 0x400000
   10aa0:	e30536e0 	movw	r3, #22240	; 0x56e0
   10aa4:	e3403001 	movt	r3, #1
   10aa8:	e5830000 	str	r0, [r3]
   10aac:	e0602001 	rsb	r2, r0, r1
   10ab0:	e0800122 	add	r0, r0, r2, lsr #2
   10ab4:	e5830004 	str	r0, [r3, #4]
   10ab8:	e2800a01 	add	r0, r0, #4096	; 0x1000
   10abc:	e3c00eff 	bic	r0, r0, #4080	; 0xff0
   10ac0:	e3c0000f 	bic	r0, r0, #15
   10ac4:	e5830008 	str	r0, [r3, #8]
   10ac8:	e583100c 	str	r1, [r3, #12]
   10acc:	e12fff1e 	bx	lr
   10ad0:	e30536e0 	movw	r3, #22240	; 0x56e0
   10ad4:	e3403001 	movt	r3, #1
   10ad8:	e593200c 	ldr	r2, [r3, #12]
   10adc:	e5930008 	ldr	r0, [r3, #8]
   10ae0:	e0600002 	rsb	r0, r0, r2
   10ae4:	e5932004 	ldr	r2, [r3, #4]
   10ae8:	e5933000 	ldr	r3, [r3]
   10aec:	e0633002 	rsb	r3, r3, r2
   10af0:	e0800003 	add	r0, r0, r3
   10af4:	e12fff1e 	bx	lr
   10af8:	e92d4070 	push	{r4, r5, r6, lr}
   10afc:	e1a06000 	mov	r6, r0
   10b00:	e30536e0 	movw	r3, #22240	; 0x56e0
   10b04:	e3403001 	movt	r3, #1
   10b08:	e5933000 	ldr	r3, [r3]
   10b0c:	e3530000 	cmp	r3, #0
   10b10:	1a000005 	bne	0x10b2c
   10b14:	e3040974 	movw	r0, #18804	; 0x4974
   10b18:	e3400001 	movt	r0, #1
   10b1c:	e3041988 	movw	r1, #18824	; 0x4988
   10b20:	e3401001 	movt	r1, #1
   10b24:	e3a02081 	mov	r2, #129	; 0x81
   10b28:	eb0000c2 	bl	0x10e38
   10b2c:	eb000a08 	bl	0x13354
   10b30:	e30532a4 	movw	r3, #21156	; 0x52a4
   10b34:	e3403001 	movt	r3, #1
   10b38:	e5933000 	ldr	r3, [r3]
   10b3c:	e3530000 	cmp	r3, #0
   10b40:	0a000018 	beq	0x10ba8
   10b44:	e1560003 	cmp	r6, r3
   10b48:	9a00003f 	bls	0x10c4c
   10b4c:	e30542a4 	movw	r4, #21156	; 0x52a4
   10b50:	e3404001 	movt	r4, #1
   10b54:	ea000001 	b	0x10b60
   10b58:	e1530006 	cmp	r3, r6
   10b5c:	2a00003c 	bcs	0x10c54
   10b60:	e5b43008 	ldr	r3, [r4, #8]!
   10b64:	e3530000 	cmp	r3, #0
   10b68:	1afffffa 	bne	0x10b58
   10b6c:	ea00000d 	b	0x10ba8
   10b70:	e5952000 	ldr	r2, [r5]
   10b74:	e3043d43 	movw	r3, #19779	; 0x4d43
   10b78:	e344324c 	movt	r3, #16972	; 0x424c
   10b7c:	e1520003 	cmp	r2, r3
   10b80:	0a000005 	beq	0x10b9c
   10b84:	e3040990 	movw	r0, #18832	; 0x4990
   10b88:	e3400001 	movt	r0, #1
   10b8c:	e3041988 	movw	r1, #18824	; 0x4988
   10b90:	e3401001 	movt	r1, #1
   10b94:	e3a0209b 	mov	r2, #155	; 0x9b
   10b98:	eb0000a6 	bl	0x10e38
   10b9c:	e5953008 	ldr	r3, [r5, #8]
   10ba0:	e5843004 	str	r3, [r4, #4]
   10ba4:	ea000015 	b	0x10c00
   10ba8:	e30526e0 	movw	r2, #22240	; 0x56e0
   10bac:	e3402001 	movt	r2, #1
   10bb0:	e5925000 	ldr	r5, [r2]
   10bb4:	e286301f 	add	r3, r6, #31
   10bb8:	e3c3300f 	bic	r3, r3, #15
   10bbc:	e0853003 	add	r3, r5, r3
   10bc0:	e5823000 	str	r3, [r2]
   10bc4:	e5922004 	ldr	r2, [r2, #4]
   10bc8:	e1530002 	cmp	r3, r2
   10bcc:	9a000002 	bls	0x10bdc
   10bd0:	eb0009ee 	bl	0x13390
   10bd4:	e3a00000 	mov	r0, #0
   10bd8:	e8bd8070 	pop	{r4, r5, r6, pc}
   10bdc:	e3a03043 	mov	r3, #67	; 0x43
   10be0:	e5c53000 	strb	r3, [r5]
   10be4:	e3a0304d 	mov	r3, #77	; 0x4d
   10be8:	e5c53001 	strb	r3, [r5, #1]
   10bec:	e3a0304c 	mov	r3, #76	; 0x4c
   10bf0:	e5c53002 	strb	r3, [r5, #2]
   10bf4:	e3a03042 	mov	r3, #66	; 0x42
   10bf8:	e5c53003 	strb	r3, [r5, #3]
   10bfc:	e5856004 	str	r6, [r5, #4]
   10c00:	eb0009e2 	bl	0x13390
   10c04:	e3a03000 	mov	r3, #0
   10c08:	e5c53008 	strb	r3, [r5, #8]
   10c0c:	e5c53009 	strb	r3, [r5, #9]
   10c10:	e5c5300a 	strb	r3, [r5, #10]
   10c14:	e5c5300b 	strb	r3, [r5, #11]
   10c18:	e2855010 	add	r5, r5, #16
   10c1c:	e315000f 	tst	r5, #15
   10c20:	0a000007 	beq	0x10c44
   10c24:	e30409b4 	movw	r0, #18868	; 0x49b4
   10c28:	e3400001 	movt	r0, #1
   10c2c:	e3041988 	movw	r1, #18824	; 0x4988
   10c30:	e3401001 	movt	r1, #1
   10c34:	e3a020b3 	mov	r2, #179	; 0xb3
   10c38:	eb00007e 	bl	0x10e38
   10c3c:	e1a00005 	mov	r0, r5
   10c40:	e8bd8070 	pop	{r4, r5, r6, pc}
   10c44:	e1a00005 	mov	r0, r5
   10c48:	e8bd8070 	pop	{r4, r5, r6, pc}
   10c4c:	e30542a4 	movw	r4, #21156	; 0x52a4
   10c50:	e3404001 	movt	r4, #1
   10c54:	e5945004 	ldr	r5, [r4, #4]
   10c58:	e3550000 	cmp	r5, #0
   10c5c:	01a06003 	moveq	r6, r3
   10c60:	0affffd0 	beq	0x10ba8
   10c64:	eaffffc1 	b	0x10b70
   10c68:	e92d4038 	push	{r3, r4, r5, lr}
   10c6c:	e2505000 	subs	r5, r0, #0
   10c70:	1a000005 	bne	0x10c8c
   10c74:	e30409e0 	movw	r0, #18912	; 0x49e0
   10c78:	e3400001 	movt	r0, #1
   10c7c:	e3041988 	movw	r1, #18824	; 0x4988
   10c80:	e3401001 	movt	r1, #1
   10c84:	e3a020ba 	mov	r2, #186	; 0xba
   10c88:	eb00006a 	bl	0x10e38
   10c8c:	e5352010 	ldr	r2, [r5, #-16]!
   10c90:	e3043d43 	movw	r3, #19779	; 0x4d43
   10c94:	e344324c 	movt	r3, #16972	; 0x424c
   10c98:	e1520003 	cmp	r2, r3
   10c9c:	0a000005 	beq	0x10cb8
   10ca0:	e3040990 	movw	r0, #18832	; 0x4990
   10ca4:	e3400001 	movt	r0, #1
   10ca8:	e3041988 	movw	r1, #18824	; 0x4988
   10cac:	e3401001 	movt	r1, #1
   10cb0:	e3a020bc 	mov	r2, #188	; 0xbc
   10cb4:	eb00005f 	bl	0x10e38
   10cb8:	e30532a4 	movw	r3, #21156	; 0x52a4
   10cbc:	e3403001 	movt	r3, #1
   10cc0:	e5933000 	ldr	r3, [r3]
   10cc4:	e3530000 	cmp	r3, #0
   10cc8:	08bd8038 	popeq	{r3, r4, r5, pc}
   10ccc:	e5952004 	ldr	r2, [r5, #4]
   10cd0:	e1530002 	cmp	r3, r2
   10cd4:	0a000005 	beq	0x10cf0
   10cd8:	e30542a4 	movw	r4, #21156	; 0x52a4
   10cdc:	e3404001 	movt	r4, #1
   10ce0:	ea00000a 	b	0x10d10
   10ce4:	e1530002 	cmp	r3, r2
   10ce8:	1a000008 	bne	0x10d10
   10cec:	ea000001 	b	0x10cf8
   10cf0:	e30542a4 	movw	r4, #21156	; 0x52a4
   10cf4:	e3404001 	movt	r4, #1
   10cf8:	eb000995 	bl	0x13354
   10cfc:	e5943004 	ldr	r3, [r4, #4]
   10d00:	e5853008 	str	r3, [r5, #8]
   10d04:	e5845004 	str	r5, [r4, #4]
   10d08:	eb0009a0 	bl	0x13390
   10d0c:	e8bd8038 	pop	{r3, r4, r5, pc}
   10d10:	e5b43008 	ldr	r3, [r4, #8]!
   10d14:	e3530000 	cmp	r3, #0
   10d18:	1afffff1 	bne	0x10ce4
   10d1c:	e8bd8038 	pop	{r3, r4, r5, pc}
   10d20:	e92d4010 	push	{r4, lr}
   10d24:	e30536e0 	movw	r3, #22240	; 0x56e0
   10d28:	e3403001 	movt	r3, #1
   10d2c:	e5933008 	ldr	r3, [r3, #8]
   10d30:	e3530000 	cmp	r3, #0
   10d34:	1a000005 	bne	0x10d50
   10d38:	e30409ec 	movw	r0, #18924	; 0x49ec
   10d3c:	e3400001 	movt	r0, #1
   10d40:	e3041988 	movw	r1, #18824	; 0x4988
   10d44:	e3401001 	movt	r1, #1
   10d48:	e3a020d6 	mov	r2, #214	; 0xd6
   10d4c:	eb000039 	bl	0x10e38
   10d50:	eb00097f 	bl	0x13354
   10d54:	e30536e0 	movw	r3, #22240	; 0x56e0
   10d58:	e3403001 	movt	r3, #1
   10d5c:	e5934010 	ldr	r4, [r3, #16]
   10d60:	e3540000 	cmp	r4, #0
   10d64:	0a000011 	beq	0x10db0
   10d68:	e3043d43 	movw	r3, #19779	; 0x4d43
   10d6c:	e3453047 	movt	r3, #20551	; 0x5047
   10d70:	e5942000 	ldr	r2, [r4]
   10d74:	e1520003 	cmp	r2, r3
   10d78:	0a000005 	beq	0x10d94
   10d7c:	e3040a00 	movw	r0, #18944	; 0x4a00
   10d80:	e3400001 	movt	r0, #1
   10d84:	e3041988 	movw	r1, #18824	; 0x4988
   10d88:	e3401001 	movt	r1, #1
   10d8c:	e3a020e4 	mov	r2, #228	; 0xe4
   10d90:	eb000028 	bl	0x10e38
   10d94:	e30536e0 	movw	r3, #22240	; 0x56e0
   10d98:	e3403001 	movt	r3, #1
   10d9c:	e5942004 	ldr	r2, [r4, #4]
   10da0:	e5832010 	str	r2, [r3, #16]
   10da4:	e3a03000 	mov	r3, #0
   10da8:	e5843000 	str	r3, [r4]
   10dac:	ea00000a 	b	0x10ddc
   10db0:	e30536e0 	movw	r3, #22240	; 0x56e0
   10db4:	e3403001 	movt	r3, #1
   10db8:	e5934008 	ldr	r4, [r3, #8]
   10dbc:	e2842a01 	add	r2, r4, #4096	; 0x1000
   10dc0:	e5832008 	str	r2, [r3, #8]
   10dc4:	e593300c 	ldr	r3, [r3, #12]
   10dc8:	e1520003 	cmp	r2, r3
   10dcc:	9a000002 	bls	0x10ddc
   10dd0:	eb00096e 	bl	0x13390
   10dd4:	e3a00000 	mov	r0, #0
   10dd8:	e8bd8010 	pop	{r4, pc}
   10ddc:	eb00096b 	bl	0x13390
   10de0:	e1a00004 	mov	r0, r4
   10de4:	e8bd8010 	pop	{r4, pc}
   10de8:	e92d4010 	push	{r4, lr}
   10dec:	e2504000 	subs	r4, r0, #0
   10df0:	1a000005 	bne	0x10e0c
   10df4:	e3040a24 	movw	r0, #18980	; 0x4a24
   10df8:	e3400001 	movt	r0, #1
   10dfc:	e3041988 	movw	r1, #18824	; 0x4988
   10e00:	e3401001 	movt	r1, #1
   10e04:	e3a020fd 	mov	r2, #253	; 0xfd
   10e08:	eb00000a 	bl	0x10e38
   10e0c:	eb000950 	bl	0x13354
   10e10:	e3043d43 	movw	r3, #19779	; 0x4d43
   10e14:	e3453047 	movt	r3, #20551	; 0x5047
   10e18:	e5843000 	str	r3, [r4]
   10e1c:	e30536e0 	movw	r3, #22240	; 0x56e0
   10e20:	e3403001 	movt	r3, #1
   10e24:	e5932010 	ldr	r2, [r3, #16]
   10e28:	e5842004 	str	r2, [r4, #4]
   10e2c:	e5834010 	str	r4, [r3, #16]
   10e30:	eb000956 	bl	0x13390
   10e34:	e8bd8010 	pop	{r4, pc}
   10e38:	e92d40f0 	push	{r4, r5, r6, r7, lr}
   10e3c:	e24dd01c 	sub	sp, sp, #28
   10e40:	e1a05000 	mov	r5, r0
   10e44:	e1a07001 	mov	r7, r1
   10e48:	e1a06002 	mov	r6, r2
   10e4c:	e1a0400d 	mov	r4, sp
   10e50:	e28d000c 	add	r0, sp, #12
   10e54:	eb00068e 	bl	0x12894
   10e58:	e28d000c 	add	r0, sp, #12
   10e5c:	e3041a30 	movw	r1, #18992	; 0x4a30
   10e60:	e3401001 	movt	r1, #1
   10e64:	e1a02007 	mov	r2, r7
   10e68:	e1a03006 	mov	r3, r6
   10e6c:	eb000924 	bl	0x13304
   10e70:	e28d000c 	add	r0, sp, #12
   10e74:	eb0006b6 	bl	0x12954
   10e78:	e1a01000 	mov	r1, r0
   10e7c:	e1a00004 	mov	r0, r4
   10e80:	eb0000c6 	bl	0x111a0
   10e84:	eb000264 	bl	0x1181c
   10e88:	e1a04000 	mov	r4, r0
   10e8c:	e28d000c 	add	r0, sp, #12
   10e90:	eb0006af 	bl	0x12954
   10e94:	e1a01000 	mov	r1, r0
   10e98:	e58d5000 	str	r5, [sp]
   10e9c:	e1a00004 	mov	r0, r4
   10ea0:	e3a02000 	mov	r2, #0
   10ea4:	e3043a38 	movw	r3, #19000	; 0x4a38
   10ea8:	e3403001 	movt	r3, #1
   10eac:	eb000305 	bl	0x11ac8
   10eb0:	e28d000c 	add	r0, sp, #12
   10eb4:	eb000696 	bl	0x12914
   10eb8:	e28dd01c 	add	sp, sp, #28
   10ebc:	e8bd80f0 	pop	{r4, r5, r6, r7, pc}
   10ec0:	e92d4010 	push	{r4, lr}
   10ec4:	e2504000 	subs	r4, r0, #0
   10ec8:	1a000005 	bne	0x10ee4
   10ecc:	e3040784 	movw	r0, #18308	; 0x4784
   10ed0:	e3400001 	movt	r0, #1
   10ed4:	e3041a50 	movw	r1, #19024	; 0x4a50
   10ed8:	e3401001 	movt	r1, #1
   10edc:	e3a02029 	mov	r2, #41	; 0x29
   10ee0:	ebffffd4 	bl	0x10e38
   10ee4:	e1a00004 	mov	r0, r4
   10ee8:	e3a01008 	mov	r1, #8
   10eec:	eb000c2c 	bl	0x13fa4
   10ef0:	e8bd8010 	pop	{r4, pc}
   10ef4:	e92d4010 	push	{r4, lr}
   10ef8:	e2504000 	subs	r4, r0, #0
   10efc:	1a000005 	bne	0x10f18
   10f00:	e3040784 	movw	r0, #18308	; 0x4784
   10f04:	e3400001 	movt	r0, #1
   10f08:	e3041a50 	movw	r1, #19024	; 0x4a50
   10f0c:	e3401001 	movt	r1, #1
   10f10:	e3a02030 	mov	r2, #48	; 0x30
   10f14:	ebffffc7 	bl	0x10e38
   10f18:	e1a00004 	mov	r0, r4
   10f1c:	eb000c2c 	bl	0x13fd4
   10f20:	e8bd8010 	pop	{r4, pc}
   10f24:	e92d4ff8 	push	{r3, r4, r5, r6, r7, r8, r9, sl, fp, lr}
   10f28:	e28db024 	add	fp, sp, #36	; 0x24
   10f2c:	e1a0a001 	mov	sl, r1
   10f30:	e1a06002 	mov	r6, r2
   10f34:	e1a05003 	mov	r5, r3
   10f38:	e2509000 	subs	r9, r0, #0
   10f3c:	1a000005 	bne	0x10f58
   10f40:	e3040784 	movw	r0, #18308	; 0x4784
   10f44:	e3400001 	movt	r0, #1
   10f48:	e3041a50 	movw	r1, #19024	; 0x4a50
   10f4c:	e3401001 	movt	r1, #1
   10f50:	e3a02038 	mov	r2, #56	; 0x38
   10f54:	ebffffb7 	bl	0x10e38
   10f58:	e3560000 	cmp	r6, #0
   10f5c:	1a000005 	bne	0x10f78
   10f60:	e3040a64 	movw	r0, #19044	; 0x4a64
   10f64:	e3400001 	movt	r0, #1
   10f68:	e3041a50 	movw	r1, #19024	; 0x4a50
   10f6c:	e3401001 	movt	r1, #1
   10f70:	e3a0203a 	mov	r2, #58	; 0x3a
   10f74:	ebffffaf 	bl	0x10e38
   10f78:	e355000f 	cmp	r5, #15
   10f7c:	8a000005 	bhi	0x10f98
   10f80:	e3040a70 	movw	r0, #19056	; 0x4a70
   10f84:	e3400001 	movt	r0, #1
   10f88:	e3041a50 	movw	r1, #19024	; 0x4a50
   10f8c:	e3401001 	movt	r1, #1
   10f90:	e3a0203b 	mov	r2, #59	; 0x3b
   10f94:	ebffffa7 	bl	0x10e38
   10f98:	e285700c 	add	r7, r5, #12
   10f9c:	e3170003 	tst	r7, #3
   10fa0:	0a000005 	beq	0x10fbc
   10fa4:	e3040a98 	movw	r0, #19096	; 0x4a98
   10fa8:	e3400001 	movt	r0, #1
   10fac:	e3041a50 	movw	r1, #19024	; 0x4a50
   10fb0:	e3401001 	movt	r1, #1
   10fb4:	e3a0203d 	mov	r2, #61	; 0x3d
   10fb8:	ebffff9e 	bl	0x10e38
   10fbc:	e2853022 	add	r3, r5, #34	; 0x22
   10fc0:	e3c33007 	bic	r3, r3, #7
   10fc4:	e04dd003 	sub	sp, sp, r3
   10fc8:	e28d400f 	add	r4, sp, #15
   10fcc:	e3c4400f 	bic	r4, r4, #15
   10fd0:	e5847000 	str	r7, [r4]
   10fd4:	e3a07000 	mov	r7, #0
   10fd8:	e5847004 	str	r7, [r4, #4]
   10fdc:	e2848008 	add	r8, r4, #8
   10fe0:	e1a00008 	mov	r0, r8
   10fe4:	e1a01006 	mov	r1, r6
   10fe8:	e1a02005 	mov	r2, r5
   10fec:	eb000b42 	bl	0x13cfc
   10ff0:	e584a008 	str	sl, [r4, #8]
   10ff4:	e245300c 	sub	r3, r5, #12
   10ff8:	e584300c 	str	r3, [r4, #12]
   10ffc:	e59b3004 	ldr	r3, [fp, #4]
   11000:	e3c33102 	bic	r3, r3, #-2147483648	; 0x80000000
   11004:	e5843010 	str	r3, [r4, #16]
   11008:	e2853008 	add	r3, r5, #8
   1100c:	e7847003 	str	r7, [r4, r3]
   11010:	eb000919 	bl	0x1347c
   11014:	f57ff04f 	dsb	sy
   11018:	e2847103 	add	r7, r4, #-1073741824	; 0xc0000000
   1101c:	e1a00009 	mov	r0, r9
   11020:	e1a01007 	mov	r1, r7
   11024:	eb000c42 	bl	0x14134
   11028:	e1500007 	cmp	r0, r7
   1102c:	13a00000 	movne	r0, #0
   11030:	1a000014 	bne	0x11088
   11034:	eb0008ee 	bl	0x133f4
   11038:	f57ff04f 	dsb	sy
   1103c:	e5943004 	ldr	r3, [r4, #4]
   11040:	e3530102 	cmp	r3, #-2147483648	; 0x80000000
   11044:	13a00000 	movne	r0, #0
   11048:	1a00000e 	bne	0x11088
   1104c:	e5943010 	ldr	r3, [r4, #16]
   11050:	e3530000 	cmp	r3, #0
   11054:	a3a00000 	movge	r0, #0
   11058:	aa00000a 	bge	0x11088
   1105c:	e3c33102 	bic	r3, r3, #-2147483648	; 0x80000000
   11060:	e5843010 	str	r3, [r4, #16]
   11064:	e3530000 	cmp	r3, #0
   11068:	03a00000 	moveq	r0, #0
   1106c:	0a000005 	beq	0x11088
   11070:	e1a00006 	mov	r0, r6
   11074:	e1a01008 	mov	r1, r8
   11078:	e1a02005 	mov	r2, r5
   1107c:	eb000b1e 	bl	0x13cfc
   11080:	e3a00001 	mov	r0, #1
   11084:	eaffffff 	b	0x11088
   11088:	e24bd024 	sub	sp, fp, #36	; 0x24
   1108c:	e8bd8ff8 	pop	{r3, r4, r5, r6, r7, r8, r9, sl, fp, pc}
   11090:	e92d41f0 	push	{r4, r5, r6, r7, r8, lr}
   11094:	e24dd048 	sub	sp, sp, #72	; 0x48
   11098:	e1a04000 	mov	r4, r0
   1109c:	e1a05001 	mov	r5, r1
   110a0:	e2528000 	subs	r8, r2, #0
   110a4:	e3043ab0 	movw	r3, #19120	; 0x4ab0
   110a8:	e3403001 	movt	r3, #1
   110ac:	e3520000 	cmp	r2, #0
   110b0:	01a08003 	moveq	r8, r3
   110b4:	eb0001d8 	bl	0x1181c
   110b8:	e58d5000 	str	r5, [sp]
   110bc:	e58d4004 	str	r4, [sp, #4]
   110c0:	e1a01008 	mov	r1, r8
   110c4:	e3a02004 	mov	r2, #4
   110c8:	e3043ab8 	movw	r3, #19128	; 0x4ab8
   110cc:	e3403001 	movt	r3, #1
   110d0:	eb00027c 	bl	0x11ac8
   110d4:	e3550000 	cmp	r5, #0
   110d8:	0a00002e 	beq	0x11198
   110dc:	e3046adc 	movw	r6, #19164	; 0x4adc
   110e0:	e3406001 	movt	r6, #1
   110e4:	e3a07004 	mov	r7, #4
   110e8:	eb0001cb 	bl	0x1181c
   110ec:	e6ff3074 	uxth	r3, r4
   110f0:	e58d3000 	str	r3, [sp]
   110f4:	e5d43000 	ldrb	r3, [r4]
   110f8:	e58d3004 	str	r3, [sp, #4]
   110fc:	e5d43001 	ldrb	r3, [r4, #1]
   11100:	e58d3008 	str	r3, [sp, #8]
   11104:	e5d43002 	ldrb	r3, [r4, #2]
   11108:	e58d300c 	str	r3, [sp, #12]
   1110c:	e5d43003 	ldrb	r3, [r4, #3]
   11110:	e58d3010 	str	r3, [sp, #16]
   11114:	e5d43004 	ldrb	r3, [r4, #4]
   11118:	e58d3014 	str	r3, [sp, #20]
   1111c:	e5d43005 	ldrb	r3, [r4, #5]
   11120:	e58d3018 	str	r3, [sp, #24]
   11124:	e5d43006 	ldrb	r3, [r4, #6]
   11128:	e58d301c 	str	r3, [sp, #28]
   1112c:	e5d43007 	ldrb	r3, [r4, #7]
   11130:	e58d3020 	str	r3, [sp, #32]
   11134:	e5d43008 	ldrb	r3, [r4, #8]
   11138:	e58d3024 	str	r3, [sp, #36]	; 0x24
   1113c:	e5d43009 	ldrb	r3, [r4, #9]
   11140:	e58d3028 	str	r3, [sp, #40]	; 0x28
   11144:	e5d4300a 	ldrb	r3, [r4, #10]
   11148:	e58d302c 	str	r3, [sp, #44]	; 0x2c
   1114c:	e5d4300b 	ldrb	r3, [r4, #11]
   11150:	e58d3030 	str	r3, [sp, #48]	; 0x30
   11154:	e5d4300c 	ldrb	r3, [r4, #12]
   11158:	e58d3034 	str	r3, [sp, #52]	; 0x34
   1115c:	e5d4300d 	ldrb	r3, [r4, #13]
   11160:	e58d3038 	str	r3, [sp, #56]	; 0x38
   11164:	e5d4300e 	ldrb	r3, [r4, #14]
   11168:	e58d303c 	str	r3, [sp, #60]	; 0x3c
   1116c:	e5d4300f 	ldrb	r3, [r4, #15]
   11170:	e58d3040 	str	r3, [sp, #64]	; 0x40
   11174:	e1a01008 	mov	r1, r8
   11178:	e1a02007 	mov	r2, r7
   1117c:	e1a03006 	mov	r3, r6
   11180:	eb000250 	bl	0x11ac8
   11184:	e2844010 	add	r4, r4, #16
   11188:	e355000f 	cmp	r5, #15
   1118c:	9a000001 	bls	0x11198
   11190:	e2555010 	subs	r5, r5, #16
   11194:	1affffd3 	bne	0x110e8
   11198:	e28dd048 	add	sp, sp, #72	; 0x48
   1119c:	e8bd81f0 	pop	{r4, r5, r6, r7, r8, pc}
   111a0:	e92d47f0 	push	{r4, r5, r6, r7, r8, r9, sl, lr}
   111a4:	e24dd008 	sub	sp, sp, #8
   111a8:	e2518000 	subs	r8, r1, #0
   111ac:	e3043ab0 	movw	r3, #19120	; 0x4ab0
   111b0:	e3403001 	movt	r3, #1
   111b4:	e3510000 	cmp	r1, #0
   111b8:	01a08003 	moveq	r8, r3
   111bc:	e2404004 	sub	r4, r0, #4
   111c0:	e3a05000 	mov	r5, #0
   111c4:	e3047784 	movw	r7, #18308	; 0x4784
   111c8:	e3407001 	movt	r7, #1
   111cc:	e3049b34 	movw	r9, #19252	; 0x4b34
   111d0:	e3409001 	movt	r9, #1
   111d4:	e3a0a004 	mov	sl, #4
   111d8:	e2844004 	add	r4, r4, #4
   111dc:	e5943000 	ldr	r3, [r4]
   111e0:	e3530902 	cmp	r3, #32768	; 0x8000
   111e4:	3a000009 	bcc	0x11210
   111e8:	e1530007 	cmp	r3, r7
   111ec:	2a000007 	bcs	0x11210
   111f0:	eb000189 	bl	0x1181c
   111f4:	e58d5000 	str	r5, [sp]
   111f8:	e5943000 	ldr	r3, [r4]
   111fc:	e58d3004 	str	r3, [sp, #4]
   11200:	e1a01008 	mov	r1, r8
   11204:	e1a0200a 	mov	r2, sl
   11208:	e1a03009 	mov	r3, r9
   1120c:	eb00022d 	bl	0x11ac8
   11210:	e2855001 	add	r5, r5, #1
   11214:	e3550040 	cmp	r5, #64	; 0x40
   11218:	1affffee 	bne	0x111d8
   1121c:	e28dd008 	add	sp, sp, #8
   11220:	e8bd87f0 	pop	{r4, r5, r6, r7, r8, r9, sl, pc}
   11224:	e3a0d823 	mov	sp, #2293760	; 0x230000
   11228:	e24ee004 	sub	lr, lr, #4
   1122c:	e92d4000 	stmfd	sp!, {lr}
   11230:	e14fe000 	mrs	lr, SPSR
   11234:	e92d4000 	stmfd	sp!, {lr}
   11238:	e94d7fff 	stmdb	sp, {r0, r1, r2, r3, r4, r5, r6, r7, r8, r9, sl, fp, ip, sp, lr}^
   1123c:	e24dd03c 	sub	sp, sp, #60	; 0x3c
   11240:	e1a0100d 	mov	r1, sp
   11244:	f1020012 	cps	#18
   11248:	e1a0200d 	mov	r2, sp
   1124c:	e1a0300e 	mov	r3, lr
   11250:	f102001f 	cps	#31
   11254:	e1a0d001 	mov	sp, r1
   11258:	e92d000c 	push	{r2, r3}
   1125c:	e1a0100d 	mov	r1, sp
   11260:	e3a00001 	mov	r0, #1
   11264:	eafffdff 	b	0x10a68
   11268:	e3a0d823 	mov	sp, #2293760	; 0x230000
   1126c:	e24ee004 	sub	lr, lr, #4
   11270:	e92d4000 	stmfd	sp!, {lr}
   11274:	e14fe000 	mrs	lr, SPSR
   11278:	e92d4000 	stmfd	sp!, {lr}
   1127c:	e94d7fff 	stmdb	sp, {r0, r1, r2, r3, r4, r5, r6, r7, r8, r9, sl, fp, ip, sp, lr}^
   11280:	e24dd03c 	sub	sp, sp, #60	; 0x3c
   11284:	e1a0100d 	mov	r1, sp
   11288:	f1020012 	cps	#18
   1128c:	e1a0200d 	mov	r2, sp
   11290:	e1a0300e 	mov	r3, lr
   11294:	f102001f 	cps	#31
   11298:	e1a0d001 	mov	sp, r1
   1129c:	e92d000c 	push	{r2, r3}
   112a0:	e1a0100d 	mov	r1, sp
   112a4:	e3a00002 	mov	r0, #2
   112a8:	eafffdee 	b	0x10a68
   112ac:	e3a0d823 	mov	sp, #2293760	; 0x230000
   112b0:	e24ee008 	sub	lr, lr, #8
   112b4:	e92d4000 	stmfd	sp!, {lr}
   112b8:	e14fe000 	mrs	lr, SPSR
   112bc:	e92d4000 	stmfd	sp!, {lr}
   112c0:	e94d7fff 	stmdb	sp, {r0, r1, r2, r3, r4, r5, r6, r7, r8, r9, sl, fp, ip, sp, lr}^
   112c4:	e24dd03c 	sub	sp, sp, #60	; 0x3c
   112c8:	e1a0100d 	mov	r1, sp
   112cc:	f1020012 	cps	#18
   112d0:	e1a0200d 	mov	r2, sp
   112d4:	e1a0300e 	mov	r3, lr
   112d8:	f102001f 	cps	#31
   112dc:	e1a0d001 	mov	sp, r1
   112e0:	e92d000c 	push	{r2, r3}
   112e4:	e1a0100d 	mov	r1, sp
   112e8:	e3a00003 	mov	r0, #3
   112ec:	eafffddd 	b	0x10a68
   112f0:	e3a0d98e 	mov	sp, #2326528	; 0x238000
   112f4:	e24ee004 	sub	lr, lr, #4
   112f8:	e92d5fff 	push	{r0, r1, r2, r3, r4, r5, r6, r7, r8, r9, sl, fp, ip, lr}
   112fc:	eb000107 	bl	0x11720
   11300:	e8fd9fff 	ldm	sp!, {r0, r1, r2, r3, r4, r5, r6, r7, r8, r9, sl, fp, ip, pc}^
   11304:	e92d4010 	push	{r4, lr}
   11308:	e2504000 	subs	r4, r0, #0
   1130c:	1a00000e 	bne	0x1134c
   11310:	e3040784 	movw	r0, #18308	; 0x4784
   11314:	e3400001 	movt	r0, #1
   11318:	e3041b48 	movw	r1, #19272	; 0x4b48
   1131c:	e3401001 	movt	r1, #1
   11320:	e3a02032 	mov	r2, #50	; 0x32
   11324:	ebfffec3 	bl	0x10e38
   11328:	ea000007 	b	0x1134c
   1132c:	e5a32004 	str	r2, [r3, #4]!
   11330:	e5a12004 	str	r2, [r1, #4]!
   11334:	e1530000 	cmp	r3, r0
   11338:	1afffffb 	bne	0x1132c
   1133c:	e30536f4 	movw	r3, #22260	; 0x56f4
   11340:	e3403001 	movt	r3, #1
   11344:	e5834000 	str	r4, [r3]
   11348:	e8bd8010 	pop	{r4, pc}
   1134c:	e2443004 	sub	r3, r4, #4
   11350:	e2840f47 	add	r0, r4, #284	; 0x11c
   11354:	e1a01000 	mov	r1, r0
   11358:	e3a02000 	mov	r2, #0
   1135c:	eafffff2 	b	0x1132c
   11360:	e30536f4 	movw	r3, #22260	; 0x56f4
   11364:	e3403001 	movt	r3, #1
   11368:	e3a02000 	mov	r2, #0
   1136c:	e5832000 	str	r2, [r3]
   11370:	e12fff1e 	bx	lr
   11374:	e92d4010 	push	{r4, lr}
   11378:	e3500000 	cmp	r0, #0
   1137c:	1a000005 	bne	0x11398
   11380:	e3040784 	movw	r0, #18308	; 0x4784
   11384:	e3400001 	movt	r0, #1
   11388:	e3041b48 	movw	r1, #19272	; 0x4b48
   1138c:	e3401001 	movt	r1, #1
   11390:	e3a02044 	mov	r2, #68	; 0x44
   11394:	ebfffea7 	bl	0x10e38
   11398:	e3a04000 	mov	r4, #0
   1139c:	e59f30cc 	ldr	r3, [pc, #204]	; 0x11470
   113a0:	e1a03143 	asr	r3, r3, #2
   113a4:	e2433002 	sub	r3, r3, #2
   113a8:	e38334ea 	orr	r3, r3, #-369098752	; 0xea000000
   113ac:	e5843018 	str	r3, [r4, #24]
   113b0:	eb000831 	bl	0x1347c
   113b4:	f57ff04f 	dsb	sy
   113b8:	ee074f15 	mcr	15, 0, r4, cr7, cr5, {0}
   113bc:	ee074fd5 	mcr	15, 0, r4, cr7, cr5, {6}
   113c0:	f57ff04f 	dsb	sy
   113c4:	f57ff06f 	isb	sy
   113c8:	f57ff05f 	dmb	sy
   113cc:	e30b020c 	movw	r0, #45580	; 0xb20c
   113d0:	e3430f00 	movt	r0, #16128	; 0x3f00
   113d4:	e1a01004 	mov	r1, r4
   113d8:	eb0001d2 	bl	0x11b28
   113dc:	e30b021c 	movw	r0, #45596	; 0xb21c
   113e0:	e3430f00 	movt	r0, #16128	; 0x3f00
   113e4:	e3e01000 	mvn	r1, #0
   113e8:	eb0001ce 	bl	0x11b28
   113ec:	e30b0220 	movw	r0, #45600	; 0xb220
   113f0:	e3430f00 	movt	r0, #16128	; 0x3f00
   113f4:	e3e01000 	mvn	r1, #0
   113f8:	eb0001ca 	bl	0x11b28
   113fc:	e30b0224 	movw	r0, #45604	; 0xb224
   11400:	e3430f00 	movt	r0, #16128	; 0x3f00
   11404:	e3e01000 	mvn	r1, #0
   11408:	eb0001c6 	bl	0x11b28
   1140c:	e3a04cb2 	mov	r4, #45568	; 0xb200
   11410:	e3434f00 	movt	r4, #16128	; 0x3f00
   11414:	e1a00004 	mov	r0, r4
   11418:	eb0001c0 	bl	0x11b20
   1141c:	e1a01000 	mov	r1, r0
   11420:	e1a00004 	mov	r0, r4
   11424:	eb0001bf 	bl	0x11b28
   11428:	e30b4204 	movw	r4, #45572	; 0xb204
   1142c:	e3434f00 	movt	r4, #16128	; 0x3f00
   11430:	e1a00004 	mov	r0, r4
   11434:	eb0001b9 	bl	0x11b20
   11438:	e1a01000 	mov	r1, r0
   1143c:	e1a00004 	mov	r0, r4
   11440:	eb0001b8 	bl	0x11b28
   11444:	e30b4208 	movw	r4, #45576	; 0xb208
   11448:	e3434f00 	movt	r4, #16128	; 0x3f00
   1144c:	e1a00004 	mov	r0, r4
   11450:	eb0001b2 	bl	0x11b20
   11454:	e1a01000 	mov	r1, r0
   11458:	e1a00004 	mov	r0, r4
   1145c:	eb0001b1 	bl	0x11b28
   11460:	f57ff05f 	dmb	sy
   11464:	f1080080 	cpsie	i
   11468:	e3a00001 	mov	r0, #1
   1146c:	e8bd8010 	pop	{r4, pc}
   11470:	000112d8 	ldrdeq	r1, [r1], -r8
   11474:	e92d4010 	push	{r4, lr}
   11478:	e1a04000 	mov	r4, r0
   1147c:	f57ff05f 	dmb	sy
   11480:	e3500047 	cmp	r0, #71	; 0x47
   11484:	9a000005 	bls	0x114a0
   11488:	e3040b54 	movw	r0, #19284	; 0x4b54
   1148c:	e3400001 	movt	r0, #1
   11490:	e3041b48 	movw	r1, #19272	; 0x4b48
   11494:	e3401001 	movt	r1, #1
   11498:	e3a02084 	mov	r2, #132	; 0x84
   1149c:	ebfffe65 	bl	0x10e38
   114a0:	e354001f 	cmp	r4, #31
   114a4:	930b0210 	movwls	r0, #45584	; 0xb210
   114a8:	93430f00 	movtls	r0, #16128	; 0x3f00
   114ac:	9a000006 	bls	0x114cc
   114b0:	e30b3214 	movw	r3, #45588	; 0xb214
   114b4:	e3433f00 	movt	r3, #16128	; 0x3f00
   114b8:	e30b0218 	movw	r0, #45592	; 0xb218
   114bc:	e3430f00 	movt	r0, #16128	; 0x3f00
   114c0:	e354003f 	cmp	r4, #63	; 0x3f
   114c4:	91a00003 	movls	r0, r3
   114c8:	eaffffff 	b	0x114cc
   114cc:	e204401f 	and	r4, r4, #31
   114d0:	e3a01001 	mov	r1, #1
   114d4:	e1a01411 	lsl	r1, r1, r4
   114d8:	eb000192 	bl	0x11b28
   114dc:	f57ff05f 	dmb	sy
   114e0:	e8bd8010 	pop	{r4, pc}
   114e4:	e92d41f0 	push	{r4, r5, r6, r7, r8, lr}
   114e8:	e1a04001 	mov	r4, r1
   114ec:	e1a08002 	mov	r8, r2
   114f0:	e1a07003 	mov	r7, r3
   114f4:	e2505000 	subs	r5, r0, #0
   114f8:	1a000005 	bne	0x11514
   114fc:	e3040784 	movw	r0, #18308	; 0x4784
   11500:	e3400001 	movt	r0, #1
   11504:	e3041b48 	movw	r1, #19272	; 0x4b48
   11508:	e3401001 	movt	r1, #1
   1150c:	e3a02068 	mov	r2, #104	; 0x68
   11510:	ebfffe48 	bl	0x10e38
   11514:	e3540047 	cmp	r4, #71	; 0x47
   11518:	9a000005 	bls	0x11534
   1151c:	e3040b54 	movw	r0, #19284	; 0x4b54
   11520:	e3400001 	movt	r0, #1
   11524:	e3041b48 	movw	r1, #19272	; 0x4b48
   11528:	e3401001 	movt	r1, #1
   1152c:	e3a0206a 	mov	r2, #106	; 0x6a
   11530:	ebfffe40 	bl	0x10e38
   11534:	e0856104 	add	r6, r5, r4, lsl #2
   11538:	e7953104 	ldr	r3, [r5, r4, lsl #2]
   1153c:	e3530000 	cmp	r3, #0
   11540:	0a000005 	beq	0x1155c
   11544:	e3040b68 	movw	r0, #19304	; 0x4b68
   11548:	e3400001 	movt	r0, #1
   1154c:	e3041b48 	movw	r1, #19272	; 0x4b48
   11550:	e3401001 	movt	r1, #1
   11554:	e3a0206b 	mov	r2, #107	; 0x6b
   11558:	ebfffe36 	bl	0x10e38
   1155c:	e7858104 	str	r8, [r5, r4, lsl #2]
   11560:	e5867120 	str	r7, [r6, #288]	; 0x120
   11564:	e1a00004 	mov	r0, r4
   11568:	ebffffc1 	bl	0x11474
   1156c:	e8bd81f0 	pop	{r4, r5, r6, r7, r8, pc}
   11570:	e92d4010 	push	{r4, lr}
   11574:	e1a04000 	mov	r4, r0
   11578:	f57ff05f 	dmb	sy
   1157c:	e3500047 	cmp	r0, #71	; 0x47
   11580:	9a000005 	bls	0x1159c
   11584:	e3040b54 	movw	r0, #19284	; 0x4b54
   11588:	e3400001 	movt	r0, #1
   1158c:	e3041b48 	movw	r1, #19272	; 0x4b48
   11590:	e3401001 	movt	r1, #1
   11594:	e3a0208f 	mov	r2, #143	; 0x8f
   11598:	ebfffe26 	bl	0x10e38
   1159c:	e354001f 	cmp	r4, #31
   115a0:	930b021c 	movwls	r0, #45596	; 0xb21c
   115a4:	93430f00 	movtls	r0, #16128	; 0x3f00
   115a8:	9a000006 	bls	0x115c8
   115ac:	e30b3220 	movw	r3, #45600	; 0xb220
   115b0:	e3433f00 	movt	r3, #16128	; 0x3f00
   115b4:	e30b0224 	movw	r0, #45604	; 0xb224
   115b8:	e3430f00 	movt	r0, #16128	; 0x3f00
   115bc:	e354003f 	cmp	r4, #63	; 0x3f
   115c0:	91a00003 	movls	r0, r3
   115c4:	eaffffff 	b	0x115c8
   115c8:	e204401f 	and	r4, r4, #31
   115cc:	e3a01001 	mov	r1, #1
   115d0:	e1a01411 	lsl	r1, r1, r4
   115d4:	eb000153 	bl	0x11b28
   115d8:	f57ff05f 	dmb	sy
   115dc:	e8bd8010 	pop	{r4, pc}
   115e0:	e92d4070 	push	{r4, r5, r6, lr}
   115e4:	e1a04001 	mov	r4, r1
   115e8:	e2505000 	subs	r5, r0, #0
   115ec:	1a000005 	bne	0x11608
   115f0:	e3040784 	movw	r0, #18308	; 0x4784
   115f4:	e3400001 	movt	r0, #1
   115f8:	e3041b48 	movw	r1, #19272	; 0x4b48
   115fc:	e3401001 	movt	r1, #1
   11600:	e3a02075 	mov	r2, #117	; 0x75
   11604:	ebfffe0b 	bl	0x10e38
   11608:	e3540047 	cmp	r4, #71	; 0x47
   1160c:	9a000005 	bls	0x11628
   11610:	e3040b54 	movw	r0, #19284	; 0x4b54
   11614:	e3400001 	movt	r0, #1
   11618:	e3041b48 	movw	r1, #19272	; 0x4b48
   1161c:	e3401001 	movt	r1, #1
   11620:	e3a02077 	mov	r2, #119	; 0x77
   11624:	ebfffe03 	bl	0x10e38
   11628:	e0856104 	add	r6, r5, r4, lsl #2
   1162c:	e7953104 	ldr	r3, [r5, r4, lsl #2]
   11630:	e3530000 	cmp	r3, #0
   11634:	1a000005 	bne	0x11650
   11638:	e3040b8c 	movw	r0, #19340	; 0x4b8c
   1163c:	e3400001 	movt	r0, #1
   11640:	e3041b48 	movw	r1, #19272	; 0x4b48
   11644:	e3401001 	movt	r1, #1
   11648:	e3a02078 	mov	r2, #120	; 0x78
   1164c:	ebfffdf9 	bl	0x10e38
   11650:	e1a00004 	mov	r0, r4
   11654:	ebffffc5 	bl	0x11570
   11658:	e3a03000 	mov	r3, #0
   1165c:	e7853104 	str	r3, [r5, r4, lsl #2]
   11660:	e5863120 	str	r3, [r6, #288]	; 0x120
   11664:	e8bd8070 	pop	{r4, r5, r6, pc}
   11668:	e92d4008 	push	{r3, lr}
   1166c:	e30536f4 	movw	r3, #22260	; 0x56f4
   11670:	e3403001 	movt	r3, #1
   11674:	e5933000 	ldr	r3, [r3]
   11678:	e3530000 	cmp	r3, #0
   1167c:	1a000005 	bne	0x11698
   11680:	e304091c 	movw	r0, #18716	; 0x491c
   11684:	e3400001 	movt	r0, #1
   11688:	e3041b48 	movw	r1, #19272	; 0x4b48
   1168c:	e3401001 	movt	r1, #1
   11690:	e3a02098 	mov	r2, #152	; 0x98
   11694:	ebfffde7 	bl	0x10e38
   11698:	e30536f4 	movw	r3, #22260	; 0x56f4
   1169c:	e3403001 	movt	r3, #1
   116a0:	e5930000 	ldr	r0, [r3]
   116a4:	e8bd8008 	pop	{r3, pc}
   116a8:	e92d4038 	push	{r3, r4, r5, lr}
   116ac:	e1a04001 	mov	r4, r1
   116b0:	e2505000 	subs	r5, r0, #0
   116b4:	1a000005 	bne	0x116d0
   116b8:	e3040784 	movw	r0, #18308	; 0x4784
   116bc:	e3400001 	movt	r0, #1
   116c0:	e3041b48 	movw	r1, #19272	; 0x4b48
   116c4:	e3401001 	movt	r1, #1
   116c8:	e3a0209e 	mov	r2, #158	; 0x9e
   116cc:	ebfffdd9 	bl	0x10e38
   116d0:	e3540047 	cmp	r4, #71	; 0x47
   116d4:	9a000005 	bls	0x116f0
   116d8:	e3040b54 	movw	r0, #19284	; 0x4b54
   116dc:	e3400001 	movt	r0, #1
   116e0:	e3041b48 	movw	r1, #19272	; 0x4b48
   116e4:	e3401001 	movt	r1, #1
   116e8:	e3a020a0 	mov	r2, #160	; 0xa0
   116ec:	ebfffdd1 	bl	0x10e38
   116f0:	e0852104 	add	r2, r5, r4, lsl #2
   116f4:	e7953104 	ldr	r3, [r5, r4, lsl #2]
   116f8:	e3530000 	cmp	r3, #0
   116fc:	0a000003 	beq	0x11710
   11700:	e5920120 	ldr	r0, [r2, #288]	; 0x120
   11704:	e12fff33 	blx	r3
   11708:	e3a00001 	mov	r0, #1
   1170c:	e8bd8038 	pop	{r3, r4, r5, pc}
   11710:	e1a00004 	mov	r0, r4
   11714:	ebffff95 	bl	0x11570
   11718:	e3a00000 	mov	r0, #0
   1171c:	e8bd8038 	pop	{r3, r4, r5, pc}
   11720:	e92d40f8 	push	{r3, r4, r5, r6, r7, lr}
   11724:	e30536f4 	movw	r3, #22260	; 0x56f4
   11728:	e3403001 	movt	r3, #1
   1172c:	e5933000 	ldr	r3, [r3]
   11730:	e3530000 	cmp	r3, #0
   11734:	1a000005 	bne	0x11750
   11738:	e304091c 	movw	r0, #18716	; 0x491c
   1173c:	e3400001 	movt	r0, #1
   11740:	e3041b48 	movw	r1, #19272	; 0x4b48
   11744:	e3401001 	movt	r1, #1
   11748:	e3a020b3 	mov	r2, #179	; 0xb3
   1174c:	ebfffdb9 	bl	0x10e38
   11750:	f57ff05f 	dmb	sy
   11754:	e3a04000 	mov	r4, #0
   11758:	e30b0204 	movw	r0, #45572	; 0xb204
   1175c:	e3430f00 	movt	r0, #16128	; 0x3f00
   11760:	e3a05001 	mov	r5, #1
   11764:	e30576f4 	movw	r7, #22260	; 0x56f4
   11768:	e3407001 	movt	r7, #1
   1176c:	e30b6204 	movw	r6, #45572	; 0xb204
   11770:	e3436f00 	movt	r6, #16128	; 0x3f00
   11774:	ea000009 	b	0x117a0
   11778:	e354001f 	cmp	r4, #31
   1177c:	91a00006 	movls	r0, r6
   11780:	9a000006 	bls	0x117a0
   11784:	e30b3208 	movw	r3, #45576	; 0xb208
   11788:	e3433f00 	movt	r3, #16128	; 0x3f00
   1178c:	e3a00cb2 	mov	r0, #45568	; 0xb200
   11790:	e3430f00 	movt	r0, #16128	; 0x3f00
   11794:	e354003f 	cmp	r4, #63	; 0x3f
   11798:	91a00003 	movls	r0, r3
   1179c:	eaffffff 	b	0x117a0
   117a0:	eb0000de 	bl	0x11b20
   117a4:	e204301f 	and	r3, r4, #31
   117a8:	e0103315 	ands	r3, r0, r5, lsl r3
   117ac:	0a000006 	beq	0x117cc
   117b0:	e5970000 	ldr	r0, [r7]
   117b4:	e1a01004 	mov	r1, r4
   117b8:	ebffffba 	bl	0x116a8
   117bc:	e3500000 	cmp	r0, #0
   117c0:	0a000001 	beq	0x117cc
   117c4:	f57ff05f 	dmb	sy
   117c8:	e8bd80f8 	pop	{r3, r4, r5, r6, r7, pc}
   117cc:	e2844001 	add	r4, r4, #1
   117d0:	e3540048 	cmp	r4, #72	; 0x48
   117d4:	1affffe7 	bne	0x11778
   117d8:	f57ff05f 	dmb	sy
   117dc:	e8bd80f8 	pop	{r3, r4, r5, r6, r7, pc}
   117e0:	e5801000 	str	r1, [r0]
   117e4:	e5802004 	str	r2, [r0, #4]
   117e8:	e3a03000 	mov	r3, #0
   117ec:	e5803008 	str	r3, [r0, #8]
   117f0:	e30536f8 	movw	r3, #22264	; 0x56f8
   117f4:	e3403001 	movt	r3, #1
   117f8:	e5830000 	str	r0, [r3]
   117fc:	e12fff1e 	bx	lr
   11800:	e30526f8 	movw	r2, #22264	; 0x56f8
   11804:	e3402001 	movt	r2, #1
   11808:	e3a03000 	mov	r3, #0
   1180c:	e5823000 	str	r3, [r2]
   11810:	e5803008 	str	r3, [r0, #8]
   11814:	e5803004 	str	r3, [r0, #4]
   11818:	e12fff1e 	bx	lr
   1181c:	e30536f8 	movw	r3, #22264	; 0x56f8
   11820:	e3403001 	movt	r3, #1
   11824:	e5930000 	ldr	r0, [r3]
   11828:	e12fff1e 	bx	lr
   1182c:	e92d4038 	push	{r3, r4, r5, lr}
   11830:	e1a05000 	mov	r5, r0
   11834:	e1a04001 	mov	r4, r1
   11838:	e1a00001 	mov	r0, r1
   1183c:	eb000955 	bl	0x13d98
   11840:	e1a02000 	mov	r2, r0
   11844:	e5950008 	ldr	r0, [r5, #8]
   11848:	e1a01004 	mov	r1, r4
   1184c:	eb0003fc 	bl	0x12844
   11850:	e8bd8038 	pop	{r3, r4, r5, pc}
   11854:	e590c000 	ldr	ip, [r0]
   11858:	e152000c 	cmp	r2, ip
   1185c:	812fff1e 	bxhi	lr
   11860:	e92d41f0 	push	{r4, r5, r6, r7, r8, lr}
   11864:	e24dd010 	sub	sp, sp, #16
   11868:	e1a08003 	mov	r8, r3
   1186c:	e1a06002 	mov	r6, r2
   11870:	e1a05001 	mov	r5, r1
   11874:	e1a04000 	mov	r4, r0
   11878:	e3520000 	cmp	r2, #0
   1187c:	1a000006 	bne	0x1189c
   11880:	e3041bb0 	movw	r1, #19376	; 0x4bb0
   11884:	e3401001 	movt	r1, #1
   11888:	ebffffe7 	bl	0x1182c
   1188c:	e5940004 	ldr	r0, [r4, #4]
   11890:	e3500000 	cmp	r0, #0
   11894:	1a000073 	bne	0x11a68
   11898:	ea00002e 	b	0x11958
   1189c:	e5900004 	ldr	r0, [r0, #4]
   118a0:	e3500000 	cmp	r0, #0
   118a4:	1a000058 	bne	0x11a0c
   118a8:	ea000072 	b	0x11a78
   118ac:	e1a00007 	mov	r0, r7
   118b0:	eb000427 	bl	0x12954
   118b4:	e1a01000 	mov	r1, r0
   118b8:	e1a00004 	mov	r0, r4
   118bc:	ebffffda 	bl	0x1182c
   118c0:	e1a00004 	mov	r0, r4
   118c4:	e3041bb8 	movw	r1, #19384	; 0x4bb8
   118c8:	e3401001 	movt	r1, #1
   118cc:	ebffffd6 	bl	0x1182c
   118d0:	e1a00007 	mov	r0, r7
   118d4:	eb00040e 	bl	0x12914
   118d8:	e1a00007 	mov	r0, r7
   118dc:	ebfffce1 	bl	0x10c68
   118e0:	e1a00004 	mov	r0, r4
   118e4:	e1a01005 	mov	r1, r5
   118e8:	ebffffcf 	bl	0x1182c
   118ec:	e1a00004 	mov	r0, r4
   118f0:	e3041bbc 	movw	r1, #19388	; 0x4bbc
   118f4:	e3401001 	movt	r1, #1
   118f8:	ebffffcb 	bl	0x1182c
   118fc:	e28d0004 	add	r0, sp, #4
   11900:	eb0003e3 	bl	0x12894
   11904:	e28d0004 	add	r0, sp, #4
   11908:	e1a01008 	mov	r1, r8
   1190c:	e59d2028 	ldr	r2, [sp, #40]	; 0x28
   11910:	eb000524 	bl	0x12da8
   11914:	e28d0004 	add	r0, sp, #4
   11918:	eb00040d 	bl	0x12954
   1191c:	e1a01000 	mov	r1, r0
   11920:	e1a00004 	mov	r0, r4
   11924:	ebffffc0 	bl	0x1182c
   11928:	e3560000 	cmp	r6, #0
   1192c:	1a00001c 	bne	0x119a4
   11930:	e1a00004 	mov	r0, r4
   11934:	e3041bc0 	movw	r1, #19392	; 0x4bc0
   11938:	e3401001 	movt	r1, #1
   1193c:	ebffffba 	bl	0x1182c
   11940:	e1a00004 	mov	r0, r4
   11944:	e3041bc8 	movw	r1, #19400	; 0x4bc8
   11948:	e3401001 	movt	r1, #1
   1194c:	ebffffb6 	bl	0x1182c
   11950:	f10c0080 	cpsid	i
   11954:	eafffffe 	b	0x11954
   11958:	e1a00004 	mov	r0, r4
   1195c:	e1a01005 	mov	r1, r5
   11960:	ebffffb1 	bl	0x1182c
   11964:	e1a00004 	mov	r0, r4
   11968:	e3041bbc 	movw	r1, #19388	; 0x4bbc
   1196c:	e3401001 	movt	r1, #1
   11970:	ebffffad 	bl	0x1182c
   11974:	e28d0004 	add	r0, sp, #4
   11978:	eb0003c5 	bl	0x12894
   1197c:	e28d0004 	add	r0, sp, #4
   11980:	e1a01008 	mov	r1, r8
   11984:	e59d2028 	ldr	r2, [sp, #40]	; 0x28
   11988:	eb000506 	bl	0x12da8
   1198c:	e28d0004 	add	r0, sp, #4
   11990:	eb0003ef 	bl	0x12954
   11994:	e1a01000 	mov	r1, r0
   11998:	e1a00004 	mov	r0, r4
   1199c:	ebffffa2 	bl	0x1182c
   119a0:	eaffffe2 	b	0x11930
   119a4:	e1a00004 	mov	r0, r4
   119a8:	e3041bc8 	movw	r1, #19400	; 0x4bc8
   119ac:	e3401001 	movt	r1, #1
   119b0:	ebffff9d 	bl	0x1182c
   119b4:	e28d0004 	add	r0, sp, #4
   119b8:	eb0003d5 	bl	0x12914
   119bc:	ea00003f 	b	0x11ac0
   119c0:	e1a00004 	mov	r0, r4
   119c4:	e1a01005 	mov	r1, r5
   119c8:	ebffff97 	bl	0x1182c
   119cc:	e1a00004 	mov	r0, r4
   119d0:	e3041bbc 	movw	r1, #19388	; 0x4bbc
   119d4:	e3401001 	movt	r1, #1
   119d8:	ebffff93 	bl	0x1182c
   119dc:	e28d0004 	add	r0, sp, #4
   119e0:	eb0003ab 	bl	0x12894
   119e4:	e28d0004 	add	r0, sp, #4
   119e8:	e1a01008 	mov	r1, r8
   119ec:	e59d2028 	ldr	r2, [sp, #40]	; 0x28
   119f0:	eb0004ec 	bl	0x12da8
   119f4:	e28d0004 	add	r0, sp, #4
   119f8:	eb0003d5 	bl	0x12954
   119fc:	e1a01000 	mov	r1, r0
   11a00:	e1a00004 	mov	r0, r4
   11a04:	ebffff88 	bl	0x1182c
   11a08:	eaffffe5 	b	0x119a4
   11a0c:	eb000733 	bl	0x136e0
   11a10:	e2507000 	subs	r7, r0, #0
   11a14:	1affffa4 	bne	0x118ac
   11a18:	eaffffe8 	b	0x119c0
   11a1c:	e1a00004 	mov	r0, r4
   11a20:	e1a01005 	mov	r1, r5
   11a24:	ebffff80 	bl	0x1182c
   11a28:	e1a00004 	mov	r0, r4
   11a2c:	e3041bbc 	movw	r1, #19388	; 0x4bbc
   11a30:	e3401001 	movt	r1, #1
   11a34:	ebffff7c 	bl	0x1182c
   11a38:	e28d0004 	add	r0, sp, #4
   11a3c:	eb000394 	bl	0x12894
   11a40:	e28d0004 	add	r0, sp, #4
   11a44:	e1a01008 	mov	r1, r8
   11a48:	e59d2028 	ldr	r2, [sp, #40]	; 0x28
   11a4c:	eb0004d5 	bl	0x12da8
   11a50:	e28d0004 	add	r0, sp, #4
   11a54:	eb0003be 	bl	0x12954
   11a58:	e1a01000 	mov	r1, r0
   11a5c:	e1a00004 	mov	r0, r4
   11a60:	ebffff71 	bl	0x1182c
   11a64:	eaffffb1 	b	0x11930
   11a68:	eb00071c 	bl	0x136e0
   11a6c:	e2507000 	subs	r7, r0, #0
   11a70:	1affff8d 	bne	0x118ac
   11a74:	eaffffe8 	b	0x11a1c
   11a78:	e1a00004 	mov	r0, r4
   11a7c:	ebffff6a 	bl	0x1182c
   11a80:	e1a00004 	mov	r0, r4
   11a84:	e3041bbc 	movw	r1, #19388	; 0x4bbc
   11a88:	e3401001 	movt	r1, #1
   11a8c:	ebffff66 	bl	0x1182c
   11a90:	e28d0004 	add	r0, sp, #4
   11a94:	eb00037e 	bl	0x12894
   11a98:	e28d0004 	add	r0, sp, #4
   11a9c:	e1a01008 	mov	r1, r8
   11aa0:	e59d2028 	ldr	r2, [sp, #40]	; 0x28
   11aa4:	eb0004bf 	bl	0x12da8
   11aa8:	e28d0004 	add	r0, sp, #4
   11aac:	eb0003a8 	bl	0x12954
   11ab0:	e1a01000 	mov	r1, r0
   11ab4:	e1a00004 	mov	r0, r4
   11ab8:	ebffff5b 	bl	0x1182c
   11abc:	eaffffb8 	b	0x119a4
   11ac0:	e28dd010 	add	sp, sp, #16
   11ac4:	e8bd81f0 	pop	{r4, r5, r6, r7, r8, pc}
   11ac8:	e52d3004 	push	{r3}		; (str r3, [sp, #-4]!)
   11acc:	e52de004 	push	{lr}		; (str lr, [sp, #-4]!)
   11ad0:	e24dd010 	sub	sp, sp, #16
   11ad4:	e28d3018 	add	r3, sp, #24
   11ad8:	e58d300c 	str	r3, [sp, #12]
   11adc:	e58d3000 	str	r3, [sp]
   11ae0:	e59d3014 	ldr	r3, [sp, #20]
   11ae4:	ebffff5a 	bl	0x11854
   11ae8:	e28dd010 	add	sp, sp, #16
   11aec:	e49de004 	pop	{lr}		; (ldr lr, [sp], #4)
   11af0:	e28dd004 	add	sp, sp, #4
   11af4:	e12fff1e 	bx	lr
   11af8:	e92d4008 	push	{r3, lr}
   11afc:	e5801008 	str	r1, [r0, #8]
   11b00:	e3041bcc 	movw	r1, #19404	; 0x4bcc
   11b04:	e3401001 	movt	r1, #1
   11b08:	e3a02003 	mov	r2, #3
   11b0c:	e3043bd4 	movw	r3, #19412	; 0x4bd4
   11b10:	e3403001 	movt	r3, #1
   11b14:	ebffffeb 	bl	0x11ac8
   11b18:	e3a00001 	mov	r0, #1
   11b1c:	e8bd8008 	pop	{r3, pc}
   11b20:	e5900000 	ldr	r0, [r0]
   11b24:	e12fff1e 	bx	lr
   11b28:	e5801000 	str	r1, [r0]
   11b2c:	e12fff1e 	bx	lr
   11b30:	e92d4070 	push	{r4, r5, r6, lr}
   11b34:	e1a04000 	mov	r4, r0
   11b38:	e1a06001 	mov	r6, r1
   11b3c:	e1a05002 	mov	r5, r2
   11b40:	e280000c 	add	r0, r0, #12
   11b44:	eb000a66 	bl	0x144e4
   11b48:	e5846000 	str	r6, [r4]
   11b4c:	e5845004 	str	r5, [r4, #4]
   11b50:	e3a03000 	mov	r3, #0
   11b54:	e5843008 	str	r3, [r4, #8]
   11b58:	e5843010 	str	r3, [r4, #16]
   11b5c:	e5843024 	str	r3, [r4, #36]	; 0x24
   11b60:	e5843028 	str	r3, [r4, #40]	; 0x28
   11b64:	e584302c 	str	r3, [r4, #44]	; 0x2c
   11b68:	e3a02001 	mov	r2, #1
   11b6c:	e5842030 	str	r2, [r4, #48]	; 0x30
   11b70:	e5c42034 	strb	r2, [r4, #52]	; 0x34
   11b74:	e5843038 	str	r3, [r4, #56]	; 0x38
   11b78:	e8bd8070 	pop	{r4, r5, r6, pc}
   11b7c:	e92d4038 	push	{r3, r4, r5, lr}
   11b80:	e1a04000 	mov	r4, r0
   11b84:	e3a05000 	mov	r5, #0
   11b88:	e5805010 	str	r5, [r0, #16]
   11b8c:	e5900008 	ldr	r0, [r0, #8]
   11b90:	eb0009ce 	bl	0x142d0
   11b94:	e5940008 	ldr	r0, [r4, #8]
   11b98:	ebfffc32 	bl	0x10c68
   11b9c:	e5845008 	str	r5, [r4, #8]
   11ba0:	e284000c 	add	r0, r4, #12
   11ba4:	eb000a5a 	bl	0x14514
   11ba8:	e8bd8038 	pop	{r3, r4, r5, pc}
   11bac:	e5900018 	ldr	r0, [r0, #24]
   11bb0:	e12fff1e 	bx	lr
   11bb4:	e590001c 	ldr	r0, [r0, #28]
   11bb8:	e12fff1e 	bx	lr
   11bbc:	e590c018 	ldr	ip, [r0, #24]
   11bc0:	e15c0001 	cmp	ip, r1
   11bc4:	912fff1e 	bxls	lr
   11bc8:	e52de004 	push	{lr}		; (str lr, [sp, #-4]!)
   11bcc:	e590e01c 	ldr	lr, [r0, #28]
   11bd0:	e15e0002 	cmp	lr, r2
   11bd4:	85900010 	ldrhi	r0, [r0, #16]
   11bd8:	8022029c 	mlahi	r2, ip, r2, r0
   11bdc:	87c23001 	strbhi	r3, [r2, r1]
   11be0:	e49df004 	pop	{pc}		; (ldr pc, [sp], #4)
   11be4:	e5903018 	ldr	r3, [r0, #24]
   11be8:	e1530001 	cmp	r3, r1
   11bec:	9a000006 	bls	0x11c0c
   11bf0:	e590c01c 	ldr	ip, [r0, #28]
   11bf4:	e15c0002 	cmp	ip, r2
   11bf8:	9a000005 	bls	0x11c14
   11bfc:	e5900010 	ldr	r0, [r0, #16]
   11c00:	e0220293 	mla	r2, r3, r2, r0
   11c04:	e7d20001 	ldrb	r0, [r2, r1]
   11c08:	e12fff1e 	bx	lr
   11c0c:	e3a00000 	mov	r0, #0
   11c10:	e12fff1e 	bx	lr
   11c14:	e3a00000 	mov	r0, #0
   11c18:	e12fff1e 	bx	lr
   11c1c:	e3a03000 	mov	r3, #0
   11c20:	e5803028 	str	r3, [r0, #40]	; 0x28
   11c24:	e12fff1e 	bx	lr
   11c28:	e3a03000 	mov	r3, #0
   11c2c:	e5803028 	str	r3, [r0, #40]	; 0x28
   11c30:	e580302c 	str	r3, [r0, #44]	; 0x2c
   11c34:	e12fff1e 	bx	lr
   11c38:	e92d4070 	push	{r4, r5, r6, lr}
   11c3c:	e1a04000 	mov	r4, r0
   11c40:	e5903028 	ldr	r3, [r0, #40]	; 0x28
   11c44:	e3530000 	cmp	r3, #0
   11c48:	0a000005 	beq	0x11c64
   11c4c:	e280000c 	add	r0, r0, #12
   11c50:	eb000a30 	bl	0x14518
   11c54:	e5943028 	ldr	r3, [r4, #40]	; 0x28
   11c58:	e0600003 	rsb	r0, r0, r3
   11c5c:	e5840028 	str	r0, [r4, #40]	; 0x28
   11c60:	e8bd8070 	pop	{r4, r5, r6, pc}
   11c64:	e590302c 	ldr	r3, [r0, #44]	; 0x2c
   11c68:	e3530000 	cmp	r3, #0
   11c6c:	08bd8070 	popeq	{r4, r5, r6, pc}
   11c70:	e5905018 	ldr	r5, [r0, #24]
   11c74:	e280600c 	add	r6, r0, #12
   11c78:	e1a00006 	mov	r0, r6
   11c7c:	eb000a25 	bl	0x14518
   11c80:	e0600005 	rsb	r0, r0, r5
   11c84:	e5840028 	str	r0, [r4, #40]	; 0x28
   11c88:	e1a00006 	mov	r0, r6
   11c8c:	eb000a2c 	bl	0x14544
   11c90:	e594302c 	ldr	r3, [r4, #44]	; 0x2c
   11c94:	e0600003 	rsb	r0, r0, r3
   11c98:	e584002c 	str	r0, [r4, #44]	; 0x2c
   11c9c:	e8bd8070 	pop	{r4, r5, r6, pc}
   11ca0:	e92d40f8 	push	{r3, r4, r5, r6, r7, lr}
   11ca4:	e1a06000 	mov	r6, r0
   11ca8:	e1a05001 	mov	r5, r1
   11cac:	e1a04002 	mov	r4, r2
   11cb0:	e280700c 	add	r7, r0, #12
   11cb4:	e1a00007 	mov	r0, r7
   11cb8:	eb000a16 	bl	0x14518
   11cbc:	e2444001 	sub	r4, r4, #1
   11cc0:	e0040094 	mul	r4, r4, r0
   11cc4:	e1a00007 	mov	r0, r7
   11cc8:	eb000a1d 	bl	0x14544
   11ccc:	e5963018 	ldr	r3, [r6, #24]
   11cd0:	e1540003 	cmp	r4, r3
   11cd4:	28bd80f8 	popcs	{r3, r4, r5, r6, r7, pc}
   11cd8:	e2455001 	sub	r5, r5, #1
   11cdc:	e0000095 	mul	r0, r5, r0
   11ce0:	e5963020 	ldr	r3, [r6, #32]
   11ce4:	e1500003 	cmp	r0, r3
   11ce8:	35864028 	strcc	r4, [r6, #40]	; 0x28
   11cec:	3586002c 	strcc	r0, [r6, #44]	; 0x2c
   11cf0:	e8bd80f8 	pop	{r3, r4, r5, r6, r7, pc}
   11cf4:	e92d4070 	push	{r4, r5, r6, lr}
   11cf8:	e1a04000 	mov	r4, r0
   11cfc:	e590602c 	ldr	r6, [r0, #44]	; 0x2c
   11d00:	e280500c 	add	r5, r0, #12
   11d04:	e1a00005 	mov	r0, r5
   11d08:	eb000a0d 	bl	0x14544
   11d0c:	e1560000 	cmp	r6, r0
   11d10:	38bd8070 	popcc	{r4, r5, r6, pc}
   11d14:	e1a00005 	mov	r0, r5
   11d18:	eb000a09 	bl	0x14544
   11d1c:	e594302c 	ldr	r3, [r4, #44]	; 0x2c
   11d20:	e0600003 	rsb	r0, r0, r3
   11d24:	e584002c 	str	r0, [r4, #44]	; 0x2c
   11d28:	e8bd8070 	pop	{r4, r5, r6, pc}
   11d2c:	e12fff1e 	bx	lr
   11d30:	e12fff1e 	bx	lr
   11d34:	e12fff1e 	bx	lr
   11d38:	e5801038 	str	r1, [r0, #56]	; 0x38
   11d3c:	e12fff1e 	bx	lr
   11d40:	e12fff1e 	bx	lr
   11d44:	e5801030 	str	r1, [r0, #48]	; 0x30
   11d48:	e12fff1e 	bx	lr
   11d4c:	e351001b 	cmp	r1, #27
   11d50:	979ff101 	ldrls	pc, [pc, r1, lsl #2]
   11d54:	ea000023 	b	0x11de8
   11d58:	00011dc8 	andeq	r1, r1, r8, asr #27
   11d5c:	00011dd4 	ldrdeq	r1, [r1], -r4
   11d60:	00011de0 	andeq	r1, r1, r0, ror #27
   11d64:	00011de8 	andeq	r1, r1, r8, ror #27
   11d68:	00011de8 	andeq	r1, r1, r8, ror #27
   11d6c:	00011de8 	andeq	r1, r1, r8, ror #27
   11d70:	00011de8 	andeq	r1, r1, r8, ror #27
   11d74:	00011de8 	andeq	r1, r1, r8, ror #27
   11d78:	00011de8 	andeq	r1, r1, r8, ror #27
   11d7c:	00011de8 	andeq	r1, r1, r8, ror #27
   11d80:	00011de8 	andeq	r1, r1, r8, ror #27
   11d84:	00011de8 	andeq	r1, r1, r8, ror #27
   11d88:	00011de8 	andeq	r1, r1, r8, ror #27
   11d8c:	00011de8 	andeq	r1, r1, r8, ror #27
   11d90:	00011de8 	andeq	r1, r1, r8, ror #27
   11d94:	00011de8 	andeq	r1, r1, r8, ror #27
   11d98:	00011de8 	andeq	r1, r1, r8, ror #27
   11d9c:	00011de8 	andeq	r1, r1, r8, ror #27
   11da0:	00011de8 	andeq	r1, r1, r8, ror #27
   11da4:	00011de8 	andeq	r1, r1, r8, ror #27
   11da8:	00011de8 	andeq	r1, r1, r8, ror #27
   11dac:	00011de8 	andeq	r1, r1, r8, ror #27
   11db0:	00011de8 	andeq	r1, r1, r8, ror #27
   11db4:	00011de8 	andeq	r1, r1, r8, ror #27
   11db8:	00011de8 	andeq	r1, r1, r8, ror #27
   11dbc:	00011de8 	andeq	r1, r1, r8, ror #27
   11dc0:	00011de8 	andeq	r1, r1, r8, ror #27
   11dc4:	00011dc8 	andeq	r1, r1, r8, asr #27
   11dc8:	e3a03001 	mov	r3, #1
   11dcc:	e5c03034 	strb	r3, [r0, #52]	; 0x34
   11dd0:	e12fff1e 	bx	lr
   11dd4:	e3a03002 	mov	r3, #2
   11dd8:	e5c03034 	strb	r3, [r0, #52]	; 0x34
   11ddc:	e12fff1e 	bx	lr
   11de0:	e3a03003 	mov	r3, #3
   11de4:	e5c03034 	strb	r3, [r0, #52]	; 0x34
   11de8:	e12fff1e 	bx	lr
   11dec:	e92d40f8 	push	{r3, r4, r5, r6, r7, lr}
   11df0:	e1a05000 	mov	r5, r0
   11df4:	e280000c 	add	r0, r0, #12
   11df8:	eb0009d1 	bl	0x14544
   11dfc:	e5954020 	ldr	r4, [r5, #32]
   11e00:	e1a06000 	mov	r6, r0
   11e04:	e5951018 	ldr	r1, [r5, #24]
   11e08:	e5957010 	ldr	r7, [r5, #16]
   11e0c:	e0604004 	rsb	r4, r0, r4
   11e10:	e0040491 	mul	r4, r1, r4
   11e14:	e0217091 	mla	r1, r1, r0, r7
   11e18:	e1a02004 	mov	r2, r4
   11e1c:	e1a00007 	mov	r0, r7
   11e20:	eb000857 	bl	0x13f84
   11e24:	e5952018 	ldr	r2, [r5, #24]
   11e28:	e1a00124 	lsr	r0, r4, #2
   11e2c:	e0020692 	mul	r2, r2, r6
   11e30:	e1b02122 	lsrs	r2, r2, #2
   11e34:	08bd80f8 	popeq	{r3, r4, r5, r6, r7, pc}
   11e38:	e0870100 	add	r0, r7, r0, lsl #2
   11e3c:	e3a01000 	mov	r1, #0
   11e40:	e1a02102 	lsl	r2, r2, #2
   11e44:	e8bd40f8 	pop	{r3, r4, r5, r6, r7, lr}
   11e48:	ea0007a3 	b	0x13cdc
   11e4c:	e92d4038 	push	{r3, r4, r5, lr}
   11e50:	e1a04000 	mov	r4, r0
   11e54:	e280500c 	add	r5, r0, #12
   11e58:	e1a00005 	mov	r0, r5
   11e5c:	eb0009b8 	bl	0x14544
   11e60:	e594302c 	ldr	r3, [r4, #44]	; 0x2c
   11e64:	e0800003 	add	r0, r0, r3
   11e68:	e584002c 	str	r0, [r4, #44]	; 0x2c
   11e6c:	e5943020 	ldr	r3, [r4, #32]
   11e70:	e1500003 	cmp	r0, r3
   11e74:	38bd8038 	popcc	{r3, r4, r5, pc}
   11e78:	e1a00004 	mov	r0, r4
   11e7c:	ebffffda 	bl	0x11dec
   11e80:	e1a00005 	mov	r0, r5
   11e84:	eb0009ae 	bl	0x14544
   11e88:	e594302c 	ldr	r3, [r4, #44]	; 0x2c
   11e8c:	e0600003 	rsb	r0, r0, r3
   11e90:	e584002c 	str	r0, [r4, #44]	; 0x2c
   11e94:	e8bd8038 	pop	{r3, r4, r5, pc}
   11e98:	e92d4008 	push	{r3, lr}
   11e9c:	e3a02000 	mov	r2, #0
   11ea0:	e5802028 	str	r2, [r0, #40]	; 0x28
   11ea4:	ebffffe8 	bl	0x11e4c
   11ea8:	e8bd8008 	pop	{r3, pc}
   11eac:	e92d4010 	push	{r4, lr}
   11eb0:	e1a04000 	mov	r4, r0
   11eb4:	e280000c 	add	r0, r0, #12
   11eb8:	eb000996 	bl	0x14518
   11ebc:	e5943028 	ldr	r3, [r4, #40]	; 0x28
   11ec0:	e0800003 	add	r0, r0, r3
   11ec4:	e5840028 	str	r0, [r4, #40]	; 0x28
   11ec8:	e5943018 	ldr	r3, [r4, #24]
   11ecc:	e1500003 	cmp	r0, r3
   11ed0:	38bd8010 	popcc	{r4, pc}
   11ed4:	e1a00004 	mov	r0, r4
   11ed8:	ebffffee 	bl	0x11e98
   11edc:	e8bd8010 	pop	{r4, pc}
   11ee0:	e92d4038 	push	{r3, r4, r5, lr}
   11ee4:	e1a05000 	mov	r5, r0
   11ee8:	e280000c 	add	r0, r0, #12
   11eec:	eb000989 	bl	0x14518
   11ef0:	e1a04180 	lsl	r4, r0, #3
   11ef4:	e5950028 	ldr	r0, [r5, #40]	; 0x28
   11ef8:	e0840000 	add	r0, r4, r0
   11efc:	e1a01004 	mov	r1, r4
   11f00:	eb0009df 	bl	0x14684
   11f04:	e0000094 	mul	r0, r4, r0
   11f08:	e5850028 	str	r0, [r5, #40]	; 0x28
   11f0c:	e5953018 	ldr	r3, [r5, #24]
   11f10:	e1500003 	cmp	r0, r3
   11f14:	38bd8038 	popcc	{r3, r4, r5, pc}
   11f18:	e1a00005 	mov	r0, r5
   11f1c:	ebffffdd 	bl	0x11e98
   11f20:	e8bd8038 	pop	{r3, r4, r5, pc}
   11f24:	e92d4ff0 	push	{r4, r5, r6, r7, r8, r9, sl, fp, lr}
   11f28:	e24dd00c 	sub	sp, sp, #12
   11f2c:	e1a09000 	mov	r9, r0
   11f30:	e58d1000 	str	r1, [sp]
   11f34:	e1a0b002 	mov	fp, r2
   11f38:	e58d3004 	str	r3, [sp, #4]
   11f3c:	e5dda030 	ldrb	sl, [sp, #48]	; 0x30
   11f40:	e3a07000 	mov	r7, #0
   11f44:	e280500c 	add	r5, r0, #12
   11f48:	ea000016 	b	0x11fa8
   11f4c:	e084600b 	add	r6, r4, fp
   11f50:	e1a00005 	mov	r0, r5
   11f54:	e59d1000 	ldr	r1, [sp]
   11f58:	e1a02004 	mov	r2, r4
   11f5c:	e1a03007 	mov	r3, r7
   11f60:	eb000991 	bl	0x145ac
   11f64:	e3500000 	cmp	r0, #0
   11f68:	e1a00009 	mov	r0, r9
   11f6c:	e1a01006 	mov	r1, r6
   11f70:	e1a02008 	mov	r2, r8
   11f74:	11a0300a 	movne	r3, sl
   11f78:	03a03000 	moveq	r3, #0
   11f7c:	ebffff0e 	bl	0x11bbc
   11f80:	e2844001 	add	r4, r4, #1
   11f84:	ea000002 	b	0x11f94
   11f88:	e3a04000 	mov	r4, #0
   11f8c:	e59d3004 	ldr	r3, [sp, #4]
   11f90:	e0878003 	add	r8, r7, r3
   11f94:	e1a00005 	mov	r0, r5
   11f98:	eb00095e 	bl	0x14518
   11f9c:	e1540000 	cmp	r4, r0
   11fa0:	3affffe9 	bcc	0x11f4c
   11fa4:	e2877001 	add	r7, r7, #1
   11fa8:	e1a00005 	mov	r0, r5
   11fac:	eb000964 	bl	0x14544
   11fb0:	e1570000 	cmp	r7, r0
   11fb4:	3afffff3 	bcc	0x11f88
   11fb8:	e28dd00c 	add	sp, sp, #12
   11fbc:	e8bd8ff0 	pop	{r4, r5, r6, r7, r8, r9, sl, fp, pc}
   11fc0:	e92d40f0 	push	{r4, r5, r6, r7, lr}
   11fc4:	e24dd00c 	sub	sp, sp, #12
   11fc8:	e1a05000 	mov	r5, r0
   11fcc:	e1a04001 	mov	r4, r1
   11fd0:	e1a06002 	mov	r6, r2
   11fd4:	e5907018 	ldr	r7, [r0, #24]
   11fd8:	e280000c 	add	r0, r0, #12
   11fdc:	eb00094d 	bl	0x14518
   11fe0:	e3043be4 	movw	r3, #19428	; 0x4be4
   11fe4:	e3403001 	movt	r3, #1
   11fe8:	e2066003 	and	r6, r6, #3
   11fec:	e19310d6 	ldrsb	r1, [r3, r6]
   11ff0:	e2042003 	and	r2, r4, #3
   11ff4:	e2822001 	add	r2, r2, #1
   11ff8:	e0627092 	mls	r2, r2, r0, r7
   11ffc:	e3a03002 	mov	r3, #2
   12000:	e58d3000 	str	r3, [sp]
   12004:	e1a00005 	mov	r0, r5
   12008:	e3a03000 	mov	r3, #0
   1200c:	ebffffc4 	bl	0x11f24
   12010:	e28dd00c 	add	sp, sp, #12
   12014:	e8bd80f0 	pop	{r4, r5, r6, r7, pc}
   12018:	e2413020 	sub	r3, r1, #32
   1201c:	e6ef3073 	uxtb	r3, r3
   12020:	e353005e 	cmp	r3, #94	; 0x5e
   12024:	812fff1e 	bxhi	lr
   12028:	e92d4010 	push	{r4, lr}
   1202c:	e24dd008 	sub	sp, sp, #8
   12030:	e1a04000 	mov	r4, r0
   12034:	e5d03034 	ldrb	r3, [r0, #52]	; 0x34
   12038:	e58d3000 	str	r3, [sp]
   1203c:	e5942028 	ldr	r2, [r4, #40]	; 0x28
   12040:	e594302c 	ldr	r3, [r4, #44]	; 0x2c
   12044:	ebffffb6 	bl	0x11f24
   12048:	e1a00004 	mov	r0, r4
   1204c:	ebffff96 	bl	0x11eac
   12050:	e28dd008 	add	sp, sp, #8
   12054:	e8bd8010 	pop	{r4, pc}
   12058:	e92d4ff8 	push	{r3, r4, r5, r6, r7, r8, r9, sl, fp, lr}
   1205c:	e1a08000 	mov	r8, r0
   12060:	e1a09001 	mov	r9, r1
   12064:	e1a0b002 	mov	fp, r2
   12068:	e3a0a000 	mov	sl, #0
   1206c:	e280500c 	add	r5, r0, #12
   12070:	e1a0600a 	mov	r6, sl
   12074:	ea00000d 	b	0x120b0
   12078:	e1a00008 	mov	r0, r8
   1207c:	e0841009 	add	r1, r4, r9
   12080:	e1a02007 	mov	r2, r7
   12084:	e1a03006 	mov	r3, r6
   12088:	ebfffecb 	bl	0x11bbc
   1208c:	e2844001 	add	r4, r4, #1
   12090:	ea000001 	b	0x1209c
   12094:	e1a04006 	mov	r4, r6
   12098:	e08a700b 	add	r7, sl, fp
   1209c:	e1a00005 	mov	r0, r5
   120a0:	eb00091c 	bl	0x14518
   120a4:	e1540000 	cmp	r4, r0
   120a8:	3afffff2 	bcc	0x12078
   120ac:	e28aa001 	add	sl, sl, #1
   120b0:	e1a00005 	mov	r0, r5
   120b4:	eb000922 	bl	0x14544
   120b8:	e15a0000 	cmp	sl, r0
   120bc:	3afffff4 	bcc	0x12094
   120c0:	e8bd8ff8 	pop	{r3, r4, r5, r6, r7, r8, r9, sl, fp, pc}
   120c4:	e92d4070 	push	{r4, r5, r6, lr}
   120c8:	e5904028 	ldr	r4, [r0, #40]	; 0x28
   120cc:	e5903018 	ldr	r3, [r0, #24]
   120d0:	e1540003 	cmp	r4, r3
   120d4:	28bd8070 	popcs	{r4, r5, r6, pc}
   120d8:	e1a05000 	mov	r5, r0
   120dc:	e280600c 	add	r6, r0, #12
   120e0:	e1a00005 	mov	r0, r5
   120e4:	e1a01004 	mov	r1, r4
   120e8:	e595202c 	ldr	r2, [r5, #44]	; 0x2c
   120ec:	ebffffd9 	bl	0x12058
   120f0:	e1a00006 	mov	r0, r6
   120f4:	eb000907 	bl	0x14518
   120f8:	e0844000 	add	r4, r4, r0
   120fc:	e5953018 	ldr	r3, [r5, #24]
   12100:	e1530004 	cmp	r3, r4
   12104:	8afffff5 	bhi	0x120e0
   12108:	e8bd8070 	pop	{r4, r5, r6, pc}
   1210c:	e92d4038 	push	{r3, r4, r5, lr}
   12110:	e1a04000 	mov	r4, r0
   12114:	ebffffea 	bl	0x120c4
   12118:	e594502c 	ldr	r5, [r4, #44]	; 0x2c
   1211c:	e284000c 	add	r0, r4, #12
   12120:	eb000907 	bl	0x14544
   12124:	e5943018 	ldr	r3, [r4, #24]
   12128:	e0800005 	add	r0, r0, r5
   1212c:	e0000093 	mul	r0, r3, r0
   12130:	e5942014 	ldr	r2, [r4, #20]
   12134:	e5943010 	ldr	r3, [r4, #16]
   12138:	e0522000 	subs	r2, r2, r0
   1213c:	08bd8038 	popeq	{r3, r4, r5, pc}
   12140:	e0830000 	add	r0, r3, r0
   12144:	e3a01000 	mov	r1, #0
   12148:	e8bd4038 	pop	{r3, r4, r5, lr}
   1214c:	ea0006e2 	b	0x13cdc
   12150:	e3510000 	cmp	r1, #0
   12154:	012fff1e 	bxeq	lr
   12158:	e92d40f8 	push	{r3, r4, r5, r6, r7, lr}
   1215c:	e1a06001 	mov	r6, r1
   12160:	e1a05000 	mov	r5, r0
   12164:	e5904028 	ldr	r4, [r0, #40]	; 0x28
   12168:	e280700c 	add	r7, r0, #12
   1216c:	e1a00007 	mov	r0, r7
   12170:	eb0008e8 	bl	0x14518
   12174:	e0204096 	mla	r0, r6, r0, r4
   12178:	e5953018 	ldr	r3, [r5, #24]
   1217c:	e1500003 	cmp	r0, r3
   12180:	31a06000 	movcc	r6, r0
   12184:	21a06003 	movcs	r6, r3
   12188:	e5954028 	ldr	r4, [r5, #40]	; 0x28
   1218c:	e1540006 	cmp	r4, r6
   12190:	28bd80f8 	popcs	{r3, r4, r5, r6, r7, pc}
   12194:	e1a00005 	mov	r0, r5
   12198:	e1a01004 	mov	r1, r4
   1219c:	e595202c 	ldr	r2, [r5, #44]	; 0x2c
   121a0:	ebffffac 	bl	0x12058
   121a4:	e1a00007 	mov	r0, r7
   121a8:	eb0008da 	bl	0x14518
   121ac:	e0844000 	add	r4, r4, r0
   121b0:	e1540006 	cmp	r4, r6
   121b4:	3afffff6 	bcc	0x12194
   121b8:	e8bd80f8 	pop	{r3, r4, r5, r6, r7, pc}
   121bc:	e92d4010 	push	{r4, lr}
   121c0:	e1a04000 	mov	r4, r0
   121c4:	e5903024 	ldr	r3, [r0, #36]	; 0x24
   121c8:	e3530007 	cmp	r3, #7
   121cc:	979ff103 	ldrls	pc, [pc, r3, lsl #2]
   121d0:	ea00012a 	b	0x12680
   121d4:	000121f4 	strdeq	r2, [r1], -r4
   121d8:	0001228c 	andeq	r2, r1, ip, lsl #5
   121dc:	000122c0 	andeq	r2, r1, r0, asr #5
   121e0:	000123d0 	ldrdeq	r2, [r1], -r0
   121e4:	0001258c 	andeq	r2, r1, ip, lsl #11
   121e8:	00012568 	andeq	r2, r1, r8, ror #10
   121ec:	000125b0 			; <UNDEFINED> instruction: 0x000125b0
   121f0:	0001260c 	andeq	r2, r1, ip, lsl #12
   121f4:	e2413008 	sub	r3, r1, #8
   121f8:	e3530013 	cmp	r3, #19
   121fc:	979ff103 	ldrls	pc, [pc, r3, lsl #2]
   12200:	ea00001f 	b	0x12284
   12204:	00012254 	andeq	r2, r1, r4, asr r2
   12208:	0001225c 	andeq	r2, r1, ip, asr r2
   1220c:	00012264 	andeq	r2, r1, r4, ror #4
   12210:	00012284 	andeq	r2, r1, r4, lsl #5
   12214:	00012284 	andeq	r2, r1, r4, lsl #5
   12218:	0001226c 	andeq	r2, r1, ip, ror #4
   1221c:	00012284 	andeq	r2, r1, r4, lsl #5
   12220:	00012284 	andeq	r2, r1, r4, lsl #5
   12224:	00012284 	andeq	r2, r1, r4, lsl #5
   12228:	00012284 	andeq	r2, r1, r4, lsl #5
   1222c:	00012284 	andeq	r2, r1, r4, lsl #5
   12230:	00012284 	andeq	r2, r1, r4, lsl #5
   12234:	00012284 	andeq	r2, r1, r4, lsl #5
   12238:	00012284 	andeq	r2, r1, r4, lsl #5
   1223c:	00012284 	andeq	r2, r1, r4, lsl #5
   12240:	00012284 	andeq	r2, r1, r4, lsl #5
   12244:	00012284 	andeq	r2, r1, r4, lsl #5
   12248:	00012284 	andeq	r2, r1, r4, lsl #5
   1224c:	00012284 	andeq	r2, r1, r4, lsl #5
   12250:	00012278 	andeq	r2, r1, r8, ror r2
   12254:	ebfffe77 	bl	0x11c38
   12258:	e8bd8010 	pop	{r4, pc}
   1225c:	ebffff1f 	bl	0x11ee0
   12260:	e8bd8010 	pop	{r4, pc}
   12264:	ebffff0b 	bl	0x11e98
   12268:	e8bd8010 	pop	{r4, pc}
   1226c:	e3a03000 	mov	r3, #0
   12270:	e5803028 	str	r3, [r0, #40]	; 0x28
   12274:	e8bd8010 	pop	{r4, pc}
   12278:	e3a03001 	mov	r3, #1
   1227c:	e5803024 	str	r3, [r0, #36]	; 0x24
   12280:	e8bd8010 	pop	{r4, pc}
   12284:	ebffff63 	bl	0x12018
   12288:	e8bd8010 	pop	{r4, pc}
   1228c:	e351004d 	cmp	r1, #77	; 0x4d
   12290:	0a000004 	beq	0x122a8
   12294:	e351005b 	cmp	r1, #91	; 0x5b
   12298:	03a03002 	moveq	r3, #2
   1229c:	05803024 	streq	r3, [r0, #36]	; 0x24
   122a0:	08bd8010 	popeq	{r4, pc}
   122a4:	ea000002 	b	0x122b4
   122a8:	e3a03000 	mov	r3, #0
   122ac:	e5803024 	str	r3, [r0, #36]	; 0x24
   122b0:	e8bd8010 	pop	{r4, pc}
   122b4:	e3a03000 	mov	r3, #0
   122b8:	e5803024 	str	r3, [r0, #36]	; 0x24
   122bc:	e8bd8010 	pop	{r4, pc}
   122c0:	e241303f 	sub	r3, r1, #63	; 0x3f
   122c4:	e3530011 	cmp	r3, #17
   122c8:	979ff103 	ldrls	pc, [pc, r3, lsl #2]
   122cc:	ea000036 	b	0x123ac
   122d0:	00012318 	andeq	r2, r1, r8, lsl r3
   122d4:	000123ac 	andeq	r2, r1, ip, lsr #7
   122d8:	00012324 	andeq	r2, r1, r4, lsr #6
   122dc:	00012334 	andeq	r2, r1, r4, lsr r3
   122e0:	00012344 	andeq	r2, r1, r4, asr #6
   122e4:	000123ac 	andeq	r2, r1, ip, lsr #7
   122e8:	000123ac 	andeq	r2, r1, ip, lsr #7
   122ec:	000123ac 	andeq	r2, r1, ip, lsr #7
   122f0:	000123ac 	andeq	r2, r1, ip, lsr #7
   122f4:	00012354 	andeq	r2, r1, r4, asr r3
   122f8:	000123ac 	andeq	r2, r1, ip, lsr #7
   122fc:	00012368 	andeq	r2, r1, r8, ror #6
   12300:	00012378 	andeq	r2, r1, r8, ror r3
   12304:	00012388 	andeq	r2, r1, r8, lsl #7
   12308:	00012394 	muleq	r1, r4, r3
   1230c:	000123ac 	andeq	r2, r1, ip, lsr #7
   12310:	000123ac 	andeq	r2, r1, ip, lsr #7
   12314:	000123a0 	andeq	r2, r1, r0, lsr #7
   12318:	e3a03004 	mov	r3, #4
   1231c:	e5803024 	str	r3, [r0, #36]	; 0x24
   12320:	e8bd8010 	pop	{r4, pc}
   12324:	ebfffe72 	bl	0x11cf4
   12328:	e3a03000 	mov	r3, #0
   1232c:	e5843024 	str	r3, [r4, #36]	; 0x24
   12330:	e8bd8010 	pop	{r4, pc}
   12334:	ebfffec4 	bl	0x11e4c
   12338:	e3a03000 	mov	r3, #0
   1233c:	e5843024 	str	r3, [r4, #36]	; 0x24
   12340:	e8bd8010 	pop	{r4, pc}
   12344:	ebfffed8 	bl	0x11eac
   12348:	e3a03000 	mov	r3, #0
   1234c:	e5843024 	str	r3, [r4, #36]	; 0x24
   12350:	e8bd8010 	pop	{r4, pc}
   12354:	e3a03000 	mov	r3, #0
   12358:	e5803028 	str	r3, [r0, #40]	; 0x28
   1235c:	e580302c 	str	r3, [r0, #44]	; 0x2c
   12360:	e5803024 	str	r3, [r0, #36]	; 0x24
   12364:	e8bd8010 	pop	{r4, pc}
   12368:	ebffff67 	bl	0x1210c
   1236c:	e3a03000 	mov	r3, #0
   12370:	e5843024 	str	r3, [r4, #36]	; 0x24
   12374:	e8bd8010 	pop	{r4, pc}
   12378:	ebffff51 	bl	0x120c4
   1237c:	e3a03000 	mov	r3, #0
   12380:	e5843024 	str	r3, [r4, #36]	; 0x24
   12384:	e8bd8010 	pop	{r4, pc}
   12388:	e3a03000 	mov	r3, #0
   1238c:	e5803024 	str	r3, [r0, #36]	; 0x24
   12390:	e8bd8010 	pop	{r4, pc}
   12394:	e3a03000 	mov	r3, #0
   12398:	e5803024 	str	r3, [r0, #36]	; 0x24
   1239c:	e8bd8010 	pop	{r4, pc}
   123a0:	e3a03000 	mov	r3, #0
   123a4:	e5803024 	str	r3, [r0, #36]	; 0x24
   123a8:	e8bd8010 	pop	{r4, pc}
   123ac:	e2413030 	sub	r3, r1, #48	; 0x30
   123b0:	e6ef3073 	uxtb	r3, r3
   123b4:	e3530009 	cmp	r3, #9
   123b8:	92411030 	subls	r1, r1, #48	; 0x30
   123bc:	9580103c 	strls	r1, [r0, #60]	; 0x3c
   123c0:	93a03003 	movls	r3, #3
   123c4:	83a03000 	movhi	r3, #0
   123c8:	e5803024 	str	r3, [r0, #36]	; 0x24
   123cc:	e8bd8010 	pop	{r4, pc}
   123d0:	e241303b 	sub	r3, r1, #59	; 0x3b
   123d4:	e3530032 	cmp	r3, #50	; 0x32
   123d8:	979ff103 	ldrls	pc, [pc, r3, lsl #2]
   123dc:	ea000052 	b	0x1252c
   123e0:	000124ac 	andeq	r2, r1, ip, lsr #9
   123e4:	0001252c 	andeq	r2, r1, ip, lsr #10
   123e8:	0001252c 	andeq	r2, r1, ip, lsr #10
   123ec:	0001252c 	andeq	r2, r1, ip, lsr #10
   123f0:	0001252c 	andeq	r2, r1, ip, lsr #10
   123f4:	0001252c 	andeq	r2, r1, ip, lsr #10
   123f8:	0001252c 	andeq	r2, r1, ip, lsr #10
   123fc:	0001252c 	andeq	r2, r1, ip, lsr #10
   12400:	0001252c 	andeq	r2, r1, ip, lsr #10
   12404:	0001252c 	andeq	r2, r1, ip, lsr #10
   12408:	0001252c 	andeq	r2, r1, ip, lsr #10
   1240c:	0001252c 	andeq	r2, r1, ip, lsr #10
   12410:	0001252c 	andeq	r2, r1, ip, lsr #10
   12414:	0001252c 	andeq	r2, r1, ip, lsr #10
   12418:	0001252c 	andeq	r2, r1, ip, lsr #10
   1241c:	0001252c 	andeq	r2, r1, ip, lsr #10
   12420:	0001252c 	andeq	r2, r1, ip, lsr #10
   12424:	000124b8 			; <UNDEFINED> instruction: 0x000124b8
   12428:	000124c4 	andeq	r2, r1, r4, asr #9
   1242c:	0001252c 	andeq	r2, r1, ip, lsr #10
   12430:	0001252c 	andeq	r2, r1, ip, lsr #10
   12434:	000124d0 	ldrdeq	r2, [r1], -r0
   12438:	0001252c 	andeq	r2, r1, ip, lsr #10
   1243c:	0001252c 	andeq	r2, r1, ip, lsr #10
   12440:	0001252c 	andeq	r2, r1, ip, lsr #10
   12444:	0001252c 	andeq	r2, r1, ip, lsr #10
   12448:	0001252c 	andeq	r2, r1, ip, lsr #10
   1244c:	0001252c 	andeq	r2, r1, ip, lsr #10
   12450:	0001252c 	andeq	r2, r1, ip, lsr #10
   12454:	000124dc 	ldrdeq	r2, [r1], -ip
   12458:	0001252c 	andeq	r2, r1, ip, lsr #10
   1245c:	0001252c 	andeq	r2, r1, ip, lsr #10
   12460:	0001252c 	andeq	r2, r1, ip, lsr #10
   12464:	0001252c 	andeq	r2, r1, ip, lsr #10
   12468:	0001252c 	andeq	r2, r1, ip, lsr #10
   1246c:	0001252c 	andeq	r2, r1, ip, lsr #10
   12470:	0001252c 	andeq	r2, r1, ip, lsr #10
   12474:	0001252c 	andeq	r2, r1, ip, lsr #10
   12478:	0001252c 	andeq	r2, r1, ip, lsr #10
   1247c:	0001252c 	andeq	r2, r1, ip, lsr #10
   12480:	0001252c 	andeq	r2, r1, ip, lsr #10
   12484:	0001252c 	andeq	r2, r1, ip, lsr #10
   12488:	0001252c 	andeq	r2, r1, ip, lsr #10
   1248c:	0001252c 	andeq	r2, r1, ip, lsr #10
   12490:	0001252c 	andeq	r2, r1, ip, lsr #10
   12494:	000124f0 	strdeq	r2, [r1], -r0
   12498:	0001252c 	andeq	r2, r1, ip, lsr #10
   1249c:	0001252c 	andeq	r2, r1, ip, lsr #10
   124a0:	0001252c 	andeq	r2, r1, ip, lsr #10
   124a4:	000124f0 	strdeq	r2, [r1], -r0
   124a8:	00012518 	andeq	r2, r1, r8, lsl r5
   124ac:	e3a03005 	mov	r3, #5
   124b0:	e5803024 	str	r3, [r0, #36]	; 0x24
   124b4:	e8bd8010 	pop	{r4, pc}
   124b8:	e3a03000 	mov	r3, #0
   124bc:	e5803024 	str	r3, [r0, #36]	; 0x24
   124c0:	e8bd8010 	pop	{r4, pc}
   124c4:	e3a03000 	mov	r3, #0
   124c8:	e5803024 	str	r3, [r0, #36]	; 0x24
   124cc:	e8bd8010 	pop	{r4, pc}
   124d0:	e3a03000 	mov	r3, #0
   124d4:	e5803024 	str	r3, [r0, #36]	; 0x24
   124d8:	e8bd8010 	pop	{r4, pc}
   124dc:	e594103c 	ldr	r1, [r4, #60]	; 0x3c
   124e0:	ebffff1a 	bl	0x12150
   124e4:	e3a03000 	mov	r3, #0
   124e8:	e5843024 	str	r3, [r4, #36]	; 0x24
   124ec:	e8bd8010 	pop	{r4, pc}
   124f0:	e590303c 	ldr	r3, [r0, #60]	; 0x3c
   124f4:	e3530004 	cmp	r3, #4
   124f8:	1a000003 	bne	0x1250c
   124fc:	e3510068 	cmp	r1, #104	; 0x68
   12500:	13a01000 	movne	r1, #0
   12504:	03a01001 	moveq	r1, #1
   12508:	e5801038 	str	r1, [r0, #56]	; 0x38
   1250c:	e3a03000 	mov	r3, #0
   12510:	e5843024 	str	r3, [r4, #36]	; 0x24
   12514:	e8bd8010 	pop	{r4, pc}
   12518:	e594103c 	ldr	r1, [r4, #60]	; 0x3c
   1251c:	ebfffe0a 	bl	0x11d4c
   12520:	e3a03000 	mov	r3, #0
   12524:	e5843024 	str	r3, [r4, #36]	; 0x24
   12528:	e8bd8010 	pop	{r4, pc}
   1252c:	e2413030 	sub	r3, r1, #48	; 0x30
   12530:	e6ef3073 	uxtb	r3, r3
   12534:	e3530009 	cmp	r3, #9
   12538:	83a03000 	movhi	r3, #0
   1253c:	85803024 	strhi	r3, [r0, #36]	; 0x24
   12540:	88bd8010 	pophi	{r4, pc}
   12544:	e590303c 	ldr	r3, [r0, #60]	; 0x3c
   12548:	e3a0200a 	mov	r2, #10
   1254c:	e0231392 	mla	r3, r2, r3, r1
   12550:	e2433030 	sub	r3, r3, #48	; 0x30
   12554:	e580303c 	str	r3, [r0, #60]	; 0x3c
   12558:	e3530063 	cmp	r3, #99	; 0x63
   1255c:	83a03000 	movhi	r3, #0
   12560:	85803024 	strhi	r3, [r0, #36]	; 0x24
   12564:	e8bd8010 	pop	{r4, pc}
   12568:	e2413030 	sub	r3, r1, #48	; 0x30
   1256c:	e6ef3073 	uxtb	r3, r3
   12570:	e3530009 	cmp	r3, #9
   12574:	92411030 	subls	r1, r1, #48	; 0x30
   12578:	95801040 	strls	r1, [r0, #64]	; 0x40
   1257c:	93a03006 	movls	r3, #6
   12580:	83a03000 	movhi	r3, #0
   12584:	e5803024 	str	r3, [r0, #36]	; 0x24
   12588:	e8bd8010 	pop	{r4, pc}
   1258c:	e2413030 	sub	r3, r1, #48	; 0x30
   12590:	e6ef3073 	uxtb	r3, r3
   12594:	e3530009 	cmp	r3, #9
   12598:	92411030 	subls	r1, r1, #48	; 0x30
   1259c:	9580103c 	strls	r1, [r0, #60]	; 0x3c
   125a0:	93a03007 	movls	r3, #7
   125a4:	83a03000 	movhi	r3, #0
   125a8:	e5803024 	str	r3, [r0, #36]	; 0x24
   125ac:	e8bd8010 	pop	{r4, pc}
   125b0:	e3510048 	cmp	r1, #72	; 0x48
   125b4:	1a000005 	bne	0x125d0
   125b8:	e594103c 	ldr	r1, [r4, #60]	; 0x3c
   125bc:	e5942040 	ldr	r2, [r4, #64]	; 0x40
   125c0:	ebfffdb6 	bl	0x11ca0
   125c4:	e3a03000 	mov	r3, #0
   125c8:	e5843024 	str	r3, [r4, #36]	; 0x24
   125cc:	e8bd8010 	pop	{r4, pc}
   125d0:	e2413030 	sub	r3, r1, #48	; 0x30
   125d4:	e6ef3073 	uxtb	r3, r3
   125d8:	e3530009 	cmp	r3, #9
   125dc:	83a03000 	movhi	r3, #0
   125e0:	85803024 	strhi	r3, [r0, #36]	; 0x24
   125e4:	88bd8010 	pophi	{r4, pc}
   125e8:	e5903040 	ldr	r3, [r0, #64]	; 0x40
   125ec:	e3a0200a 	mov	r2, #10
   125f0:	e0211392 	mla	r1, r2, r3, r1
   125f4:	e2411030 	sub	r1, r1, #48	; 0x30
   125f8:	e5801040 	str	r1, [r0, #64]	; 0x40
   125fc:	e35100c7 	cmp	r1, #199	; 0xc7
   12600:	83a03000 	movhi	r3, #0
   12604:	85803024 	strhi	r3, [r0, #36]	; 0x24
   12608:	e8bd8010 	pop	{r4, pc}
   1260c:	e3510068 	cmp	r1, #104	; 0x68
   12610:	0a000001 	beq	0x1261c
   12614:	e351006c 	cmp	r1, #108	; 0x6c
   12618:	1a000009 	bne	0x12644
   1261c:	e594303c 	ldr	r3, [r4, #60]	; 0x3c
   12620:	e3530019 	cmp	r3, #25
   12624:	1a000003 	bne	0x12638
   12628:	e3510068 	cmp	r1, #104	; 0x68
   1262c:	13a01000 	movne	r1, #0
   12630:	03a01001 	moveq	r1, #1
   12634:	e5841030 	str	r1, [r4, #48]	; 0x30
   12638:	e3a03000 	mov	r3, #0
   1263c:	e5843024 	str	r3, [r4, #36]	; 0x24
   12640:	e8bd8010 	pop	{r4, pc}
   12644:	e2413030 	sub	r3, r1, #48	; 0x30
   12648:	e6ef3073 	uxtb	r3, r3
   1264c:	e3530009 	cmp	r3, #9
   12650:	83a03000 	movhi	r3, #0
   12654:	85803024 	strhi	r3, [r0, #36]	; 0x24
   12658:	88bd8010 	pophi	{r4, pc}
   1265c:	e590303c 	ldr	r3, [r0, #60]	; 0x3c
   12660:	e3a0200a 	mov	r2, #10
   12664:	e0211392 	mla	r1, r2, r3, r1
   12668:	e2411030 	sub	r1, r1, #48	; 0x30
   1266c:	e580103c 	str	r1, [r0, #60]	; 0x3c
   12670:	e3510063 	cmp	r1, #99	; 0x63
   12674:	83a03000 	movhi	r3, #0
   12678:	85803024 	strhi	r3, [r0, #36]	; 0x24
   1267c:	e8bd8010 	pop	{r4, pc}
   12680:	e3a03000 	mov	r3, #0
   12684:	e5803024 	str	r3, [r0, #36]	; 0x24
   12688:	e8bd8010 	pop	{r4, pc}
   1268c:	e5903030 	ldr	r3, [r0, #48]	; 0x30
   12690:	e3530000 	cmp	r3, #0
   12694:	012fff1e 	bxeq	lr
   12698:	e92d47f0 	push	{r4, r5, r6, r7, r8, r9, sl, lr}
   1269c:	e1a06000 	mov	r6, r0
   126a0:	e280900c 	add	r9, r0, #12
   126a4:	e1a00009 	mov	r0, r9
   126a8:	eb0007b2 	bl	0x14578
   126ac:	e1a08000 	mov	r8, r0
   126b0:	e3a0a000 	mov	sl, #0
   126b4:	ea000016 	b	0x12714
   126b8:	e5965028 	ldr	r5, [r6, #40]	; 0x28
   126bc:	e0875005 	add	r5, r7, r5
   126c0:	e596402c 	ldr	r4, [r6, #44]	; 0x2c
   126c4:	e0884004 	add	r4, r8, r4
   126c8:	e1a00006 	mov	r0, r6
   126cc:	e1a01005 	mov	r1, r5
   126d0:	e1a02004 	mov	r2, r4
   126d4:	ebfffd42 	bl	0x11be4
   126d8:	e3500000 	cmp	r0, #0
   126dc:	e1a00006 	mov	r0, r6
   126e0:	e1a01005 	mov	r1, r5
   126e4:	e1a02004 	mov	r2, r4
   126e8:	05d63034 	ldrbeq	r3, [r6, #52]	; 0x34
   126ec:	11a0300a 	movne	r3, sl
   126f0:	ebfffd31 	bl	0x11bbc
   126f4:	e2877001 	add	r7, r7, #1
   126f8:	ea000000 	b	0x12700
   126fc:	e1a0700a 	mov	r7, sl
   12700:	e1a00009 	mov	r0, r9
   12704:	eb000783 	bl	0x14518
   12708:	e1570000 	cmp	r7, r0
   1270c:	3affffe9 	bcc	0x126b8
   12710:	e2888001 	add	r8, r8, #1
   12714:	e1a00009 	mov	r0, r9
   12718:	eb000789 	bl	0x14544
   1271c:	e1580000 	cmp	r8, r0
   12720:	3afffff5 	bcc	0x126fc
   12724:	e8bd87f0 	pop	{r4, r5, r6, r7, r8, r9, sl, pc}
   12728:	e92d4070 	push	{r4, r5, r6, lr}
   1272c:	e1a04000 	mov	r4, r0
   12730:	e3a00008 	mov	r0, #8
   12734:	ebfff8ef 	bl	0x10af8
   12738:	e5840008 	str	r0, [r4, #8]
   1273c:	e5941000 	ldr	r1, [r4]
   12740:	e5942004 	ldr	r2, [r4, #4]
   12744:	e3a03008 	mov	r3, #8
   12748:	eb00068d 	bl	0x14184
   1274c:	e5940008 	ldr	r0, [r4, #8]
   12750:	e3a01001 	mov	r1, #1
   12754:	e30f2fdf 	movw	r2, #65503	; 0xffdf
   12758:	eb0006ec 	bl	0x14310
   1275c:	e5940008 	ldr	r0, [r4, #8]
   12760:	e3a01002 	mov	r1, #2
   12764:	e3a02b3e 	mov	r2, #63488	; 0xf800
   12768:	eb0006e8 	bl	0x14310
   1276c:	e5940008 	ldr	r0, [r4, #8]
   12770:	e3a01003 	mov	r1, #3
   12774:	e3a0201f 	mov	r2, #31
   12778:	eb0006e4 	bl	0x14310
   1277c:	e5940008 	ldr	r0, [r4, #8]
   12780:	eb0006f4 	bl	0x14358
   12784:	e3500000 	cmp	r0, #0
   12788:	08bd8070 	popeq	{r4, r5, r6, pc}
   1278c:	e5940008 	ldr	r0, [r4, #8]
   12790:	eb00072e 	bl	0x14450
   12794:	e3500008 	cmp	r0, #8
   12798:	1a000025 	bne	0x12834
   1279c:	e5940008 	ldr	r0, [r4, #8]
   127a0:	eb000736 	bl	0x14480
   127a4:	e5840010 	str	r0, [r4, #16]
   127a8:	e5940008 	ldr	r0, [r4, #8]
   127ac:	eb000740 	bl	0x144b4
   127b0:	e5840014 	str	r0, [r4, #20]
   127b4:	e5940008 	ldr	r0, [r4, #8]
   127b8:	eb000700 	bl	0x143c0
   127bc:	e5840018 	str	r0, [r4, #24]
   127c0:	e5940008 	ldr	r0, [r4, #8]
   127c4:	eb000709 	bl	0x143f0
   127c8:	e584001c 	str	r0, [r4, #28]
   127cc:	e5940008 	ldr	r0, [r4, #8]
   127d0:	eb000712 	bl	0x14420
   127d4:	e5943018 	ldr	r3, [r4, #24]
   127d8:	e1500003 	cmp	r0, r3
   127dc:	1a000016 	bne	0x1283c
   127e0:	e594501c 	ldr	r5, [r4, #28]
   127e4:	e284600c 	add	r6, r4, #12
   127e8:	e1a00006 	mov	r0, r6
   127ec:	eb000754 	bl	0x14544
   127f0:	e1a01000 	mov	r1, r0
   127f4:	e1a00005 	mov	r0, r5
   127f8:	eb0007a1 	bl	0x14684
   127fc:	e1a05000 	mov	r5, r0
   12800:	e1a00006 	mov	r0, r6
   12804:	eb00074e 	bl	0x14544
   12808:	e0000590 	mul	r0, r0, r5
   1280c:	e5840020 	str	r0, [r4, #32]
   12810:	e3a03000 	mov	r3, #0
   12814:	e5843028 	str	r3, [r4, #40]	; 0x28
   12818:	e584302c 	str	r3, [r4, #44]	; 0x2c
   1281c:	e1a00004 	mov	r0, r4
   12820:	ebfffe39 	bl	0x1210c
   12824:	e1a00004 	mov	r0, r4
   12828:	ebffff97 	bl	0x1268c
   1282c:	e3a00001 	mov	r0, #1
   12830:	e8bd8070 	pop	{r4, r5, r6, pc}
   12834:	e3a00000 	mov	r0, #0
   12838:	e8bd8070 	pop	{r4, r5, r6, pc}
   1283c:	e3a00000 	mov	r0, #0
   12840:	e8bd8070 	pop	{r4, r5, r6, pc}
   12844:	e92d40f8 	push	{r3, r4, r5, r6, r7, lr}
   12848:	e1a06000 	mov	r6, r0
   1284c:	e1a05001 	mov	r5, r1
   12850:	e1a07002 	mov	r7, r2
   12854:	ebffff8c 	bl	0x1268c
   12858:	e3570000 	cmp	r7, #0
   1285c:	0a000006 	beq	0x1287c
   12860:	e1a04007 	mov	r4, r7
   12864:	e1a00006 	mov	r0, r6
   12868:	e0d510d1 	ldrsb	r1, [r5], #1
   1286c:	ebfffe52 	bl	0x121bc
   12870:	e2544001 	subs	r4, r4, #1
   12874:	1afffffa 	bne	0x12864
   12878:	ea000000 	b	0x12880
   1287c:	e3a07000 	mov	r7, #0
   12880:	e1a00006 	mov	r0, r6
   12884:	ebffff80 	bl	0x1268c
   12888:	f57ff05f 	dmb	sy
   1288c:	e1a00007 	mov	r0, r7
   12890:	e8bd80f8 	pop	{r3, r4, r5, r6, r7, pc}
   12894:	e92d4010 	push	{r4, lr}
   12898:	e2504000 	subs	r4, r0, #0
   1289c:	1a000005 	bne	0x128b8
   128a0:	e3040784 	movw	r0, #18308	; 0x4784
   128a4:	e3400001 	movt	r0, #1
   128a8:	e3041bec 	movw	r1, #19436	; 0x4bec
   128ac:	e3401001 	movt	r1, #1
   128b0:	e3a02023 	mov	r2, #35	; 0x23
   128b4:	ebfff95f 	bl	0x10e38
   128b8:	e3a03000 	mov	r3, #0
   128bc:	e5843000 	str	r3, [r4]
   128c0:	e5843004 	str	r3, [r4, #4]
   128c4:	e8bd8010 	pop	{r4, pc}
   128c8:	e92d4038 	push	{r3, r4, r5, lr}
   128cc:	e1a04001 	mov	r4, r1
   128d0:	e2505000 	subs	r5, r0, #0
   128d4:	1a000005 	bne	0x128f0
   128d8:	e3040784 	movw	r0, #18308	; 0x4784
   128dc:	e3400001 	movt	r0, #1
   128e0:	e3041bec 	movw	r1, #19436	; 0x4bec
   128e4:	e3401001 	movt	r1, #1
   128e8:	e3a0202a 	mov	r2, #42	; 0x2a
   128ec:	ebfff951 	bl	0x10e38
   128f0:	e1a00004 	mov	r0, r4
   128f4:	eb000527 	bl	0x13d98
   128f8:	e2800001 	add	r0, r0, #1
   128fc:	e5850004 	str	r0, [r5, #4]
   12900:	ebfff87c 	bl	0x10af8
   12904:	e5850000 	str	r0, [r5]
   12908:	e1a01004 	mov	r1, r4
   1290c:	eb00055b 	bl	0x13e80
   12910:	e8bd8038 	pop	{r3, r4, r5, pc}
   12914:	e92d4010 	push	{r4, lr}
   12918:	e2504000 	subs	r4, r0, #0
   1291c:	1a000005 	bne	0x12938
   12920:	e3040784 	movw	r0, #18308	; 0x4784
   12924:	e3400001 	movt	r0, #1
   12928:	e3041bec 	movw	r1, #19436	; 0x4bec
   1292c:	e3401001 	movt	r1, #1
   12930:	e3a02035 	mov	r2, #53	; 0x35
   12934:	ebfff93f 	bl	0x10e38
   12938:	e5940000 	ldr	r0, [r4]
   1293c:	e3500000 	cmp	r0, #0
   12940:	08bd8010 	popeq	{r4, pc}
   12944:	ebfff8c7 	bl	0x10c68
   12948:	e3a03000 	mov	r3, #0
   1294c:	e5843000 	str	r3, [r4]
   12950:	e8bd8010 	pop	{r4, pc}
   12954:	e92d4010 	push	{r4, lr}
   12958:	e2504000 	subs	r4, r0, #0
   1295c:	1a000005 	bne	0x12978
   12960:	e3040784 	movw	r0, #18308	; 0x4784
   12964:	e3400001 	movt	r0, #1
   12968:	e3041bec 	movw	r1, #19436	; 0x4bec
   1296c:	e3401001 	movt	r1, #1
   12970:	e3a02040 	mov	r2, #64	; 0x40
   12974:	ebfff92f 	bl	0x10e38
   12978:	e5940000 	ldr	r0, [r4]
   1297c:	e30437d8 	movw	r3, #18392	; 0x47d8
   12980:	e3403001 	movt	r3, #1
   12984:	e3500000 	cmp	r0, #0
   12988:	01a00003 	moveq	r0, r3
   1298c:	e8bd8010 	pop	{r4, pc}
   12990:	e92d4038 	push	{r3, r4, r5, lr}
   12994:	e1a05001 	mov	r5, r1
   12998:	e2504000 	subs	r4, r0, #0
   1299c:	1a000005 	bne	0x129b8
   129a0:	e3040784 	movw	r0, #18308	; 0x4784
   129a4:	e3400001 	movt	r0, #1
   129a8:	e3041bec 	movw	r1, #19436	; 0x4bec
   129ac:	e3401001 	movt	r1, #1
   129b0:	e3a0204c 	mov	r2, #76	; 0x4c
   129b4:	ebfff91f 	bl	0x10e38
   129b8:	e5940000 	ldr	r0, [r4]
   129bc:	e3500000 	cmp	r0, #0
   129c0:	0a000000 	beq	0x129c8
   129c4:	ebfff8a7 	bl	0x10c68
   129c8:	e1a00005 	mov	r0, r5
   129cc:	eb0004f1 	bl	0x13d98
   129d0:	e2800001 	add	r0, r0, #1
   129d4:	e5840004 	str	r0, [r4, #4]
   129d8:	ebfff846 	bl	0x10af8
   129dc:	e5840000 	str	r0, [r4]
   129e0:	e1a01005 	mov	r1, r5
   129e4:	eb000525 	bl	0x13e80
   129e8:	e5940000 	ldr	r0, [r4]
   129ec:	e8bd8038 	pop	{r3, r4, r5, pc}
   129f0:	e92d4010 	push	{r4, lr}
   129f4:	e2504000 	subs	r4, r0, #0
   129f8:	1a000005 	bne	0x12a14
   129fc:	e3040784 	movw	r0, #18308	; 0x4784
   12a00:	e3400001 	movt	r0, #1
   12a04:	e3041bec 	movw	r1, #19436	; 0x4bec
   12a08:	e3401001 	movt	r1, #1
   12a0c:	e3a0205e 	mov	r2, #94	; 0x5e
   12a10:	ebfff908 	bl	0x10e38
   12a14:	e5940000 	ldr	r0, [r4]
   12a18:	e3500000 	cmp	r0, #0
   12a1c:	0a000001 	beq	0x12a28
   12a20:	eb0004dc 	bl	0x13d98
   12a24:	e8bd8010 	pop	{r4, pc}
   12a28:	e3a00000 	mov	r0, #0
   12a2c:	e8bd8010 	pop	{r4, pc}
   12a30:	e92d4070 	push	{r4, r5, r6, lr}
   12a34:	e1a06001 	mov	r6, r1
   12a38:	e2504000 	subs	r4, r0, #0
   12a3c:	1a000005 	bne	0x12a58
   12a40:	e3040784 	movw	r0, #18308	; 0x4784
   12a44:	e3400001 	movt	r0, #1
   12a48:	e3041bec 	movw	r1, #19436	; 0x4bec
   12a4c:	e3401001 	movt	r1, #1
   12a50:	e3a0206a 	mov	r2, #106	; 0x6a
   12a54:	ebfff8f7 	bl	0x10e38
   12a58:	e3a03001 	mov	r3, #1
   12a5c:	e5843004 	str	r3, [r4, #4]
   12a60:	e5940000 	ldr	r0, [r4]
   12a64:	e3500000 	cmp	r0, #0
   12a68:	0a000003 	beq	0x12a7c
   12a6c:	eb0004c9 	bl	0x13d98
   12a70:	e5943004 	ldr	r3, [r4, #4]
   12a74:	e0830000 	add	r0, r3, r0
   12a78:	e5840004 	str	r0, [r4, #4]
   12a7c:	e1a00006 	mov	r0, r6
   12a80:	eb0004c4 	bl	0x13d98
   12a84:	e5943004 	ldr	r3, [r4, #4]
   12a88:	e0800003 	add	r0, r0, r3
   12a8c:	e5840004 	str	r0, [r4, #4]
   12a90:	ebfff818 	bl	0x10af8
   12a94:	e1a05000 	mov	r5, r0
   12a98:	e5941000 	ldr	r1, [r4]
   12a9c:	e3510000 	cmp	r1, #0
   12aa0:	03a03000 	moveq	r3, #0
   12aa4:	05c03000 	strbeq	r3, [r0]
   12aa8:	0a000003 	beq	0x12abc
   12aac:	eb0004f3 	bl	0x13e80
   12ab0:	e5940000 	ldr	r0, [r4]
   12ab4:	ebfff86b 	bl	0x10c68
   12ab8:	eaffffff 	b	0x12abc
   12abc:	e1a00005 	mov	r0, r5
   12ac0:	e1a01006 	mov	r1, r6
   12ac4:	eb00050f 	bl	0x13f08
   12ac8:	e5845000 	str	r5, [r4]
   12acc:	e8bd8070 	pop	{r4, r5, r6, pc}
   12ad0:	e92d4038 	push	{r3, r4, r5, lr}
   12ad4:	e1a04001 	mov	r4, r1
   12ad8:	e2505000 	subs	r5, r0, #0
   12adc:	1a000005 	bne	0x12af8
   12ae0:	e3040784 	movw	r0, #18308	; 0x4784
   12ae4:	e3400001 	movt	r0, #1
   12ae8:	e3041bec 	movw	r1, #19436	; 0x4bec
   12aec:	e3401001 	movt	r1, #1
   12af0:	e3a02086 	mov	r2, #134	; 0x86
   12af4:	ebfff8cf 	bl	0x10e38
   12af8:	e5950000 	ldr	r0, [r5]
   12afc:	e1a01004 	mov	r1, r4
   12b00:	eb0004b0 	bl	0x13dc8
   12b04:	e8bd8038 	pop	{r3, r4, r5, pc}
   12b08:	e92d4038 	push	{r3, r4, r5, lr}
   12b0c:	e1a04001 	mov	r4, r1
   12b10:	e2505000 	subs	r5, r0, #0
   12b14:	1a000005 	bne	0x12b30
   12b18:	e3040784 	movw	r0, #18308	; 0x4784
   12b1c:	e3400001 	movt	r0, #1
   12b20:	e3041bec 	movw	r1, #19436	; 0x4bec
   12b24:	e3401001 	movt	r1, #1
   12b28:	e3a0208d 	mov	r2, #141	; 0x8d
   12b2c:	ebfff8c1 	bl	0x10e38
   12b30:	e5952000 	ldr	r2, [r5]
   12b34:	e5d23000 	ldrb	r3, [r2]
   12b38:	e3530000 	cmp	r3, #0
   12b3c:	0a000010 	beq	0x12b84
   12b40:	e6af3073 	sxtb	r3, r3
   12b44:	e1530004 	cmp	r3, r4
   12b48:	0a000005 	beq	0x12b64
   12b4c:	e3a00000 	mov	r0, #0
   12b50:	ea000005 	b	0x12b6c
   12b54:	e6af3073 	sxtb	r3, r3
   12b58:	e1530004 	cmp	r3, r4
   12b5c:	1a000002 	bne	0x12b6c
   12b60:	e8bd8038 	pop	{r3, r4, r5, pc}
   12b64:	e3a00000 	mov	r0, #0
   12b68:	e8bd8038 	pop	{r3, r4, r5, pc}
   12b6c:	e2800001 	add	r0, r0, #1
   12b70:	e5f23001 	ldrb	r3, [r2, #1]!
   12b74:	e3530000 	cmp	r3, #0
   12b78:	1afffff5 	bne	0x12b54
   12b7c:	e3e00000 	mvn	r0, #0
   12b80:	e8bd8038 	pop	{r3, r4, r5, pc}
   12b84:	e3e00000 	mvn	r0, #0
   12b88:	e8bd8038 	pop	{r3, r4, r5, pc}
   12b8c:	e92d40f8 	push	{r3, r4, r5, r6, r7, lr}
   12b90:	e1a04001 	mov	r4, r1
   12b94:	e2505000 	subs	r5, r0, #0
   12b98:	1a000005 	bne	0x12bb4
   12b9c:	e3040784 	movw	r0, #18308	; 0x4784
   12ba0:	e3400001 	movt	r0, #1
   12ba4:	e3041bec 	movw	r1, #19436	; 0x4bec
   12ba8:	e3401001 	movt	r1, #1
   12bac:	e3002199 	movw	r2, #409	; 0x199
   12bb0:	ebfff8a0 	bl	0x10e38
   12bb4:	e3540000 	cmp	r4, #0
   12bb8:	08bd80f8 	popeq	{r3, r4, r5, r6, r7, pc}
   12bbc:	e5956008 	ldr	r6, [r5, #8]
   12bc0:	e5953000 	ldr	r3, [r5]
   12bc4:	e0636006 	rsb	r6, r3, r6
   12bc8:	e0864004 	add	r4, r6, r4
   12bcc:	e2842001 	add	r2, r4, #1
   12bd0:	e5953004 	ldr	r3, [r5, #4]
   12bd4:	e1520003 	cmp	r2, r3
   12bd8:	98bd80f8 	popls	{r3, r4, r5, r6, r7, pc}
   12bdc:	e2844041 	add	r4, r4, #65	; 0x41
   12be0:	e1a00004 	mov	r0, r4
   12be4:	ebfff7c3 	bl	0x10af8
   12be8:	e1a07000 	mov	r7, r0
   12bec:	e5953008 	ldr	r3, [r5, #8]
   12bf0:	e3a02000 	mov	r2, #0
   12bf4:	e5c32000 	strb	r2, [r3]
   12bf8:	e5951000 	ldr	r1, [r5]
   12bfc:	eb00049f 	bl	0x13e80
   12c00:	e5950000 	ldr	r0, [r5]
   12c04:	ebfff817 	bl	0x10c68
   12c08:	e5857000 	str	r7, [r5]
   12c0c:	e5854004 	str	r4, [r5, #4]
   12c10:	e0876006 	add	r6, r7, r6
   12c14:	e5856008 	str	r6, [r5, #8]
   12c18:	e8bd80f8 	pop	{r3, r4, r5, r6, r7, pc}
   12c1c:	e92d4070 	push	{r4, r5, r6, lr}
   12c20:	e1a05001 	mov	r5, r1
   12c24:	e1a06002 	mov	r6, r2
   12c28:	e2504000 	subs	r4, r0, #0
   12c2c:	1a000005 	bne	0x12c48
   12c30:	e3040784 	movw	r0, #18308	; 0x4784
   12c34:	e3400001 	movt	r0, #1
   12c38:	e3041bec 	movw	r1, #19436	; 0x4bec
   12c3c:	e3401001 	movt	r1, #1
   12c40:	e3a02d06 	mov	r2, #384	; 0x180
   12c44:	ebfff87b 	bl	0x10e38
   12c48:	e1a00004 	mov	r0, r4
   12c4c:	e1a01006 	mov	r1, r6
   12c50:	ebffffcd 	bl	0x12b8c
   12c54:	e2463001 	sub	r3, r6, #1
   12c58:	e3560000 	cmp	r6, #0
   12c5c:	08bd8070 	popeq	{r4, r5, r6, pc}
   12c60:	e5942008 	ldr	r2, [r4, #8]
   12c64:	e2821001 	add	r1, r2, #1
   12c68:	e5841008 	str	r1, [r4, #8]
   12c6c:	e5c25000 	strb	r5, [r2]
   12c70:	e2433001 	sub	r3, r3, #1
   12c74:	e3730001 	cmn	r3, #1
   12c78:	1afffff8 	bne	0x12c60
   12c7c:	e8bd8070 	pop	{r4, r5, r6, pc}
   12c80:	e92d4070 	push	{r4, r5, r6, lr}
   12c84:	e1a06001 	mov	r6, r1
   12c88:	e2504000 	subs	r4, r0, #0
   12c8c:	1a000005 	bne	0x12ca8
   12c90:	e3040784 	movw	r0, #18308	; 0x4784
   12c94:	e3400001 	movt	r0, #1
   12c98:	e3041bec 	movw	r1, #19436	; 0x4bec
   12c9c:	e3401001 	movt	r1, #1
   12ca0:	e3a02f63 	mov	r2, #396	; 0x18c
   12ca4:	ebfff863 	bl	0x10e38
   12ca8:	e1a00006 	mov	r0, r6
   12cac:	eb000439 	bl	0x13d98
   12cb0:	e1a05000 	mov	r5, r0
   12cb4:	e1a00004 	mov	r0, r4
   12cb8:	e1a01005 	mov	r1, r5
   12cbc:	ebffffb2 	bl	0x12b8c
   12cc0:	e5940008 	ldr	r0, [r4, #8]
   12cc4:	e1a01006 	mov	r1, r6
   12cc8:	eb00046c 	bl	0x13e80
   12ccc:	e5940008 	ldr	r0, [r4, #8]
   12cd0:	e0800005 	add	r0, r0, r5
   12cd4:	e5840008 	str	r0, [r4, #8]
   12cd8:	e8bd8070 	pop	{r4, r5, r6, pc}
   12cdc:	e92d4ff8 	push	{r3, r4, r5, r6, r7, r8, r9, sl, fp, lr}
   12ce0:	e1a0b000 	mov	fp, r0
   12ce4:	e1a06001 	mov	r6, r1
   12ce8:	e1a08002 	mov	r8, r2
   12cec:	e1a0a003 	mov	sl, r3
   12cf0:	e1510002 	cmp	r1, r2
   12cf4:	23a04001 	movcs	r4, #1
   12cf8:	2a000003 	bcs	0x12d0c
   12cfc:	e1a05001 	mov	r5, r1
   12d00:	e3a04001 	mov	r4, #1
   12d04:	e1a0700b 	mov	r7, fp
   12d08:	ea000007 	b	0x12d2c
   12d0c:	e0040498 	mul	r4, r8, r4
   12d10:	e1a00006 	mov	r0, r6
   12d14:	e1a01004 	mov	r1, r4
   12d18:	eb000659 	bl	0x14684
   12d1c:	e1a05000 	mov	r5, r0
   12d20:	e1500008 	cmp	r0, r8
   12d24:	2afffff8 	bcs	0x12d0c
   12d28:	eafffff5 	b	0x12d04
   12d2c:	e1a09007 	mov	r9, r7
   12d30:	e1a00006 	mov	r0, r6
   12d34:	e1a01004 	mov	r1, r4
   12d38:	eb000655 	bl	0x14694
   12d3c:	e1a06001 	mov	r6, r1
   12d40:	e3550009 	cmp	r5, #9
   12d44:	92855030 	addls	r5, r5, #48	; 0x30
   12d48:	96ef5075 	uxtbls	r5, r5
   12d4c:	9a000005 	bls	0x12d68
   12d50:	e35a0000 	cmp	sl, #0
   12d54:	13a03000 	movne	r3, #0
   12d58:	03a03020 	moveq	r3, #32
   12d5c:	e2855037 	add	r5, r5, #55	; 0x37
   12d60:	e0835005 	add	r5, r3, r5
   12d64:	e6ef5075 	uxtb	r5, r5
   12d68:	e5c95000 	strb	r5, [r9]
   12d6c:	e2877001 	add	r7, r7, #1
   12d70:	e1a00004 	mov	r0, r4
   12d74:	e1a01008 	mov	r1, r8
   12d78:	eb000641 	bl	0x14684
   12d7c:	e2504000 	subs	r4, r0, #0
   12d80:	0a000004 	beq	0x12d98
   12d84:	e1a00006 	mov	r0, r6
   12d88:	e1a01004 	mov	r1, r4
   12d8c:	eb00063c 	bl	0x14684
   12d90:	e1a05000 	mov	r5, r0
   12d94:	eaffffe4 	b	0x12d2c
   12d98:	e3a03000 	mov	r3, #0
   12d9c:	e5c93001 	strb	r3, [r9, #1]
   12da0:	e1a0000b 	mov	r0, fp
   12da4:	e8bd8ff8 	pop	{r3, r4, r5, r6, r7, r8, r9, sl, fp, pc}
   12da8:	e92d4ff0 	push	{r4, r5, r6, r7, r8, r9, sl, fp, lr}
   12dac:	e24dd014 	sub	sp, sp, #20
   12db0:	e1a04001 	mov	r4, r1
   12db4:	e1a08002 	mov	r8, r2
   12db8:	e2507000 	subs	r7, r0, #0
   12dbc:	1a000005 	bne	0x12dd8
   12dc0:	e3040784 	movw	r0, #18308	; 0x4784
   12dc4:	e3400001 	movt	r0, #1
   12dc8:	e3041bec 	movw	r1, #19436	; 0x4bec
   12dcc:	e3401001 	movt	r1, #1
   12dd0:	e3a020ad 	mov	r2, #173	; 0xad
   12dd4:	ebfff817 	bl	0x10e38
   12dd8:	e5970000 	ldr	r0, [r7]
   12ddc:	e3500000 	cmp	r0, #0
   12de0:	0a000000 	beq	0x12de8
   12de4:	ebfff79f 	bl	0x10c68
   12de8:	e3a00040 	mov	r0, #64	; 0x40
   12dec:	e5870004 	str	r0, [r7, #4]
   12df0:	ebfff740 	bl	0x10af8
   12df4:	e5870000 	str	r0, [r7]
   12df8:	e5870008 	str	r0, [r7, #8]
   12dfc:	e3a0600a 	mov	r6, #10
   12e00:	ea0000ff 	b	0x13204
   12e04:	e6af3071 	sxtb	r3, r1
   12e08:	e3530025 	cmp	r3, #37	; 0x25
   12e0c:	1a0000f7 	bne	0x131f0
   12e10:	e5d43001 	ldrb	r3, [r4, #1]
   12e14:	e6af2073 	sxtb	r2, r3
   12e18:	e3520025 	cmp	r2, #37	; 0x25
   12e1c:	1a000005 	bne	0x12e38
   12e20:	e1a00007 	mov	r0, r7
   12e24:	e3a01025 	mov	r1, #37	; 0x25
   12e28:	e3a02001 	mov	r2, #1
   12e2c:	ebffff7a 	bl	0x12c1c
   12e30:	e2844002 	add	r4, r4, #2
   12e34:	ea0000f2 	b	0x13204
   12e38:	e6af3073 	sxtb	r3, r3
   12e3c:	e353002d 	cmp	r3, #45	; 0x2d
   12e40:	12844001 	addne	r4, r4, #1
   12e44:	13a09000 	movne	r9, #0
   12e48:	02844002 	addeq	r4, r4, #2
   12e4c:	03a09001 	moveq	r9, #1
   12e50:	e1d430d0 	ldrsb	r3, [r4]
   12e54:	e3530030 	cmp	r3, #48	; 0x30
   12e58:	02844001 	addeq	r4, r4, #1
   12e5c:	03a0a001 	moveq	sl, #1
   12e60:	13a0a000 	movne	sl, #0
   12e64:	e5d43000 	ldrb	r3, [r4]
   12e68:	e2432030 	sub	r2, r3, #48	; 0x30
   12e6c:	e6ef2072 	uxtb	r2, r2
   12e70:	e3520009 	cmp	r2, #9
   12e74:	8a000009 	bhi	0x12ea0
   12e78:	e3a05000 	mov	r5, #0
   12e7c:	e6af3073 	sxtb	r3, r3
   12e80:	e0253596 	mla	r5, r6, r5, r3
   12e84:	e2455030 	sub	r5, r5, #48	; 0x30
   12e88:	e5f43001 	ldrb	r3, [r4, #1]!
   12e8c:	e2432030 	sub	r2, r3, #48	; 0x30
   12e90:	e6ef2072 	uxtb	r2, r2
   12e94:	e3520009 	cmp	r2, #9
   12e98:	9afffff7 	bls	0x12e7c
   12e9c:	ea000000 	b	0x12ea4
   12ea0:	e3a05000 	mov	r5, #0
   12ea4:	e6af3073 	sxtb	r3, r3
   12ea8:	e353006c 	cmp	r3, #108	; 0x6c
   12eac:	1a0000db 	bne	0x13220
   12eb0:	e2840001 	add	r0, r4, #1
   12eb4:	e5d43001 	ldrb	r3, [r4, #1]
   12eb8:	e6af2073 	sxtb	r2, r3
   12ebc:	e2422058 	sub	r2, r2, #88	; 0x58
   12ec0:	e3520020 	cmp	r2, #32
   12ec4:	979ff102 	ldrls	pc, [pc, r2, lsl #2]
   12ec8:	ea0000be 	b	0x131c8
   12ecc:	0001311c 	andeq	r3, r1, ip, lsl r1
   12ed0:	000131c8 	andeq	r3, r1, r8, asr #3
   12ed4:	000131c8 	andeq	r3, r1, r8, asr #3
   12ed8:	000131c8 	andeq	r3, r1, r8, asr #3
   12edc:	000131c8 	andeq	r3, r1, r8, asr #3
   12ee0:	000131c8 	andeq	r3, r1, r8, asr #3
   12ee4:	000131c8 	andeq	r3, r1, r8, asr #3
   12ee8:	000131c8 	andeq	r3, r1, r8, asr #3
   12eec:	000131c8 	andeq	r3, r1, r8, asr #3
   12ef0:	000131c8 	andeq	r3, r1, r8, asr #3
   12ef4:	000131c8 	andeq	r3, r1, r8, asr #3
   12ef8:	00012f50 	andeq	r2, r1, r0, asr pc
   12efc:	00012fc8 	andeq	r2, r1, r8, asr #31
   12f00:	000131c8 	andeq	r3, r1, r8, asr #3
   12f04:	000131c8 	andeq	r3, r1, r8, asr #3
   12f08:	000131c8 	andeq	r3, r1, r8, asr #3
   12f0c:	000131c8 	andeq	r3, r1, r8, asr #3
   12f10:	000131c8 	andeq	r3, r1, r8, asr #3
   12f14:	000131c8 	andeq	r3, r1, r8, asr #3
   12f18:	000131c8 	andeq	r3, r1, r8, asr #3
   12f1c:	000131c8 	andeq	r3, r1, r8, asr #3
   12f20:	000131c8 	andeq	r3, r1, r8, asr #3
   12f24:	000131c8 	andeq	r3, r1, r8, asr #3
   12f28:	0001312c 	andeq	r3, r1, ip, lsr #2
   12f2c:	000131c8 	andeq	r3, r1, r8, asr #3
   12f30:	000131c8 	andeq	r3, r1, r8, asr #3
   12f34:	000131c8 	andeq	r3, r1, r8, asr #3
   12f38:	0001308c 	andeq	r3, r1, ip, lsl #1
   12f3c:	000131c8 	andeq	r3, r1, r8, asr #3
   12f40:	00013108 	andeq	r3, r1, r8, lsl #2
   12f44:	000131c8 	andeq	r3, r1, r8, asr #3
   12f48:	000131c8 	andeq	r3, r1, r8, asr #3
   12f4c:	0001311c 	andeq	r3, r1, ip, lsl r1
   12f50:	e1a04000 	mov	r4, r0
   12f54:	e288a004 	add	sl, r8, #4
   12f58:	e5d88000 	ldrb	r8, [r8]
   12f5c:	e3590000 	cmp	r9, #0
   12f60:	0a00000c 	beq	0x12f98
   12f64:	e1a00007 	mov	r0, r7
   12f68:	e6af1078 	sxtb	r1, r8
   12f6c:	e3a02001 	mov	r2, #1
   12f70:	ebffff29 	bl	0x12c1c
   12f74:	e3550001 	cmp	r5, #1
   12f78:	91a0800a 	movls	r8, sl
   12f7c:	9a00009f 	bls	0x13200
   12f80:	e1a00007 	mov	r0, r7
   12f84:	e3a01020 	mov	r1, #32
   12f88:	e2452001 	sub	r2, r5, #1
   12f8c:	ebffff22 	bl	0x12c1c
   12f90:	e1a0800a 	mov	r8, sl
   12f94:	ea000099 	b	0x13200
   12f98:	e3550001 	cmp	r5, #1
   12f9c:	9a000003 	bls	0x12fb0
   12fa0:	e1a00007 	mov	r0, r7
   12fa4:	e3a01020 	mov	r1, #32
   12fa8:	e2452001 	sub	r2, r5, #1
   12fac:	ebffff1a 	bl	0x12c1c
   12fb0:	e1a00007 	mov	r0, r7
   12fb4:	e6af1078 	sxtb	r1, r8
   12fb8:	e3a02001 	mov	r2, #1
   12fbc:	ebffff16 	bl	0x12c1c
   12fc0:	e1a0800a 	mov	r8, sl
   12fc4:	ea00008d 	b	0x13200
   12fc8:	e5981000 	ldr	r1, [r8]
   12fcc:	e1a04000 	mov	r4, r0
   12fd0:	e2888004 	add	r8, r8, #4
   12fd4:	ea000001 	b	0x12fe0
   12fd8:	e5981000 	ldr	r1, [r8]
   12fdc:	e2888004 	add	r8, r8, #4
   12fe0:	e3510000 	cmp	r1, #0
   12fe4:	aa0000b4 	bge	0x132bc
   12fe8:	e28d0004 	add	r0, sp, #4
   12fec:	e2611000 	rsb	r1, r1, #0
   12ff0:	e1a02006 	mov	r2, r6
   12ff4:	e3a03000 	mov	r3, #0
   12ff8:	ebffff37 	bl	0x12cdc
   12ffc:	e28d0004 	add	r0, sp, #4
   13000:	eb000364 	bl	0x13d98
   13004:	e280a001 	add	sl, r0, #1
   13008:	e3590000 	cmp	r9, #0
   1300c:	0a0000b4 	beq	0x132e4
   13010:	e1a00007 	mov	r0, r7
   13014:	e3a0102d 	mov	r1, #45	; 0x2d
   13018:	e3a02001 	mov	r2, #1
   1301c:	ebfffefe 	bl	0x12c1c
   13020:	e1a00007 	mov	r0, r7
   13024:	e28d1004 	add	r1, sp, #4
   13028:	ebffff14 	bl	0x12c80
   1302c:	e155000a 	cmp	r5, sl
   13030:	9a000072 	bls	0x13200
   13034:	e1a00007 	mov	r0, r7
   13038:	e3a01020 	mov	r1, #32
   1303c:	e06a2005 	rsb	r2, sl, r5
   13040:	ebfffef5 	bl	0x12c1c
   13044:	ea00006d 	b	0x13200
   13048:	e3a09001 	mov	r9, #1
   1304c:	ea000000 	b	0x13054
   13050:	e3a09000 	mov	r9, #0
   13054:	e1a00007 	mov	r0, r7
   13058:	e3a01020 	mov	r1, #32
   1305c:	e06a2005 	rsb	r2, sl, r5
   13060:	ebfffeed 	bl	0x12c1c
   13064:	e3590000 	cmp	r9, #0
   13068:	0a000003 	beq	0x1307c
   1306c:	e1a00007 	mov	r0, r7
   13070:	e3a0102d 	mov	r1, #45	; 0x2d
   13074:	e3a02001 	mov	r2, #1
   13078:	ebfffee7 	bl	0x12c1c
   1307c:	e1a00007 	mov	r0, r7
   13080:	e28d1004 	add	r1, sp, #4
   13084:	ebfffefd 	bl	0x12c80
   13088:	ea00005c 	b	0x13200
   1308c:	e1a04000 	mov	r4, r0
   13090:	e288b004 	add	fp, r8, #4
   13094:	e5988000 	ldr	r8, [r8]
   13098:	e1a00008 	mov	r0, r8
   1309c:	eb00033d 	bl	0x13d98
   130a0:	e1a0a000 	mov	sl, r0
   130a4:	e3590000 	cmp	r9, #0
   130a8:	0a00000b 	beq	0x130dc
   130ac:	e1a00007 	mov	r0, r7
   130b0:	e1a01008 	mov	r1, r8
   130b4:	ebfffef1 	bl	0x12c80
   130b8:	e15a0005 	cmp	sl, r5
   130bc:	21a0800b 	movcs	r8, fp
   130c0:	2a00004e 	bcs	0x13200
   130c4:	e1a00007 	mov	r0, r7
   130c8:	e3a01020 	mov	r1, #32
   130cc:	e06a2005 	rsb	r2, sl, r5
   130d0:	ebfffed1 	bl	0x12c1c
   130d4:	e1a0800b 	mov	r8, fp
   130d8:	ea000048 	b	0x13200
   130dc:	e1500005 	cmp	r0, r5
   130e0:	2a000003 	bcs	0x130f4
   130e4:	e1a00007 	mov	r0, r7
   130e8:	e3a01020 	mov	r1, #32
   130ec:	e06a2005 	rsb	r2, sl, r5
   130f0:	ebfffec9 	bl	0x12c1c
   130f4:	e1a00007 	mov	r0, r7
   130f8:	e1a01008 	mov	r1, r8
   130fc:	ebfffedf 	bl	0x12c80
   13100:	e1a0800b 	mov	r8, fp
   13104:	ea00003d 	b	0x13200
   13108:	e1a04000 	mov	r4, r0
   1310c:	eaffffff 	b	0x13110
   13110:	e3a03075 	mov	r3, #117	; 0x75
   13114:	e1a02006 	mov	r2, r6
   13118:	ea000007 	b	0x1313c
   1311c:	e1a04000 	mov	r4, r0
   13120:	eaffffff 	b	0x13124
   13124:	e3a02010 	mov	r2, #16
   13128:	ea000003 	b	0x1313c
   1312c:	e1a04000 	mov	r4, r0
   13130:	e3a02008 	mov	r2, #8
   13134:	ea000000 	b	0x1313c
   13138:	e3a02008 	mov	r2, #8
   1313c:	e5981000 	ldr	r1, [r8]
   13140:	e2888004 	add	r8, r8, #4
   13144:	e6af3073 	sxtb	r3, r3
   13148:	e28d0004 	add	r0, sp, #4
   1314c:	e3530058 	cmp	r3, #88	; 0x58
   13150:	13a03000 	movne	r3, #0
   13154:	03a03001 	moveq	r3, #1
   13158:	ebfffedf 	bl	0x12cdc
   1315c:	e28d0004 	add	r0, sp, #4
   13160:	eb00030c 	bl	0x13d98
   13164:	e1a0b000 	mov	fp, r0
   13168:	e3590000 	cmp	r9, #0
   1316c:	0a000009 	beq	0x13198
   13170:	e1a00007 	mov	r0, r7
   13174:	e28d1004 	add	r1, sp, #4
   13178:	ebfffec0 	bl	0x12c80
   1317c:	e15b0005 	cmp	fp, r5
   13180:	2a00001e 	bcs	0x13200
   13184:	e1a00007 	mov	r0, r7
   13188:	e3a01020 	mov	r1, #32
   1318c:	e06b2005 	rsb	r2, fp, r5
   13190:	ebfffea1 	bl	0x12c1c
   13194:	ea000019 	b	0x13200
   13198:	e1500005 	cmp	r0, r5
   1319c:	2a000005 	bcs	0x131b8
   131a0:	e35a0000 	cmp	sl, #0
   131a4:	e1a00007 	mov	r0, r7
   131a8:	13a01030 	movne	r1, #48	; 0x30
   131ac:	03a01020 	moveq	r1, #32
   131b0:	e06b2005 	rsb	r2, fp, r5
   131b4:	ebfffe98 	bl	0x12c1c
   131b8:	e1a00007 	mov	r0, r7
   131bc:	e28d1004 	add	r1, sp, #4
   131c0:	ebfffeae 	bl	0x12c80
   131c4:	ea00000d 	b	0x13200
   131c8:	e1a04000 	mov	r4, r0
   131cc:	e1a00007 	mov	r0, r7
   131d0:	e3a01025 	mov	r1, #37	; 0x25
   131d4:	e3a02001 	mov	r2, #1
   131d8:	ebfffe8f 	bl	0x12c1c
   131dc:	e1a00007 	mov	r0, r7
   131e0:	e1d410d0 	ldrsb	r1, [r4]
   131e4:	e3a02001 	mov	r2, #1
   131e8:	ebfffe8b 	bl	0x12c1c
   131ec:	ea000003 	b	0x13200
   131f0:	e1a00007 	mov	r0, r7
   131f4:	e6af1071 	sxtb	r1, r1
   131f8:	e3a02001 	mov	r2, #1
   131fc:	ebfffe86 	bl	0x12c1c
   13200:	e2844001 	add	r4, r4, #1
   13204:	e5d41000 	ldrb	r1, [r4]
   13208:	e3510000 	cmp	r1, #0
   1320c:	1afffefc 	bne	0x12e04
   13210:	e5973008 	ldr	r3, [r7, #8]
   13214:	e3a02000 	mov	r2, #0
   13218:	e5c32000 	strb	r2, [r3]
   1321c:	ea000036 	b	0x132fc
   13220:	e5d43000 	ldrb	r3, [r4]
   13224:	e6af2073 	sxtb	r2, r3
   13228:	e2422058 	sub	r2, r2, #88	; 0x58
   1322c:	e3520020 	cmp	r2, #32
   13230:	979ff102 	ldrls	pc, [pc, r2, lsl #2]
   13234:	eaffffe4 	b	0x131cc
   13238:	00013124 	andeq	r3, r1, r4, lsr #2
   1323c:	000131cc 	andeq	r3, r1, ip, asr #3
   13240:	000131cc 	andeq	r3, r1, ip, asr #3
   13244:	000131cc 	andeq	r3, r1, ip, asr #3
   13248:	000131cc 	andeq	r3, r1, ip, asr #3
   1324c:	000131cc 	andeq	r3, r1, ip, asr #3
   13250:	000131cc 	andeq	r3, r1, ip, asr #3
   13254:	000131cc 	andeq	r3, r1, ip, asr #3
   13258:	000131cc 	andeq	r3, r1, ip, asr #3
   1325c:	000131cc 	andeq	r3, r1, ip, asr #3
   13260:	000131cc 	andeq	r3, r1, ip, asr #3
   13264:	00012f54 	andeq	r2, r1, r4, asr pc
   13268:	00012fd8 	ldrdeq	r2, [r1], -r8
   1326c:	000131cc 	andeq	r3, r1, ip, asr #3
   13270:	000131cc 	andeq	r3, r1, ip, asr #3
   13274:	000131cc 	andeq	r3, r1, ip, asr #3
   13278:	000131cc 	andeq	r3, r1, ip, asr #3
   1327c:	000131cc 	andeq	r3, r1, ip, asr #3
   13280:	000131cc 	andeq	r3, r1, ip, asr #3
   13284:	000131cc 	andeq	r3, r1, ip, asr #3
   13288:	000131cc 	andeq	r3, r1, ip, asr #3
   1328c:	000131cc 	andeq	r3, r1, ip, asr #3
   13290:	000131cc 	andeq	r3, r1, ip, asr #3
   13294:	00013138 	andeq	r3, r1, r8, lsr r1
   13298:	000131cc 	andeq	r3, r1, ip, asr #3
   1329c:	000131cc 	andeq	r3, r1, ip, asr #3
   132a0:	000131cc 	andeq	r3, r1, ip, asr #3
   132a4:	00013090 	muleq	r1, r0, r0
   132a8:	000131cc 	andeq	r3, r1, ip, asr #3
   132ac:	00013110 	andeq	r3, r1, r0, lsl r1
   132b0:	000131cc 	andeq	r3, r1, ip, asr #3
   132b4:	000131cc 	andeq	r3, r1, ip, asr #3
   132b8:	00013124 	andeq	r3, r1, r4, lsr #2
   132bc:	e28d0004 	add	r0, sp, #4
   132c0:	e1a02006 	mov	r2, r6
   132c4:	e3a03000 	mov	r3, #0
   132c8:	ebfffe83 	bl	0x12cdc
   132cc:	e28d0004 	add	r0, sp, #4
   132d0:	eb0002b0 	bl	0x13d98
   132d4:	e1a0a000 	mov	sl, r0
   132d8:	e3590000 	cmp	r9, #0
   132dc:	1affff4f 	bne	0x13020
   132e0:	ea000002 	b	0x132f0
   132e4:	e155000a 	cmp	r5, sl
   132e8:	9affff5f 	bls	0x1306c
   132ec:	eaffff55 	b	0x13048
   132f0:	e1550000 	cmp	r5, r0
   132f4:	9affff60 	bls	0x1307c
   132f8:	eaffff54 	b	0x13050
   132fc:	e28dd014 	add	sp, sp, #20
   13300:	e8bd8ff0 	pop	{r4, r5, r6, r7, r8, r9, sl, fp, pc}
   13304:	e92d000e 	push	{r1, r2, r3}
   13308:	e92d4010 	push	{r4, lr}
   1330c:	e24dd00c 	sub	sp, sp, #12
   13310:	e2504000 	subs	r4, r0, #0
   13314:	1a000005 	bne	0x13330
   13318:	e3040784 	movw	r0, #18308	; 0x4784
   1331c:	e3400001 	movt	r0, #1
   13320:	e3041bec 	movw	r1, #19436	; 0x4bec
   13324:	e3401001 	movt	r1, #1
   13328:	e3a020a1 	mov	r2, #161	; 0xa1
   1332c:	ebfff6c1 	bl	0x10e38
   13330:	e28d2018 	add	r2, sp, #24
   13334:	e58d2004 	str	r2, [sp, #4]
   13338:	e1a00004 	mov	r0, r4
   1333c:	e59d1014 	ldr	r1, [sp, #20]
   13340:	ebfffe98 	bl	0x12da8
   13344:	e28dd00c 	add	sp, sp, #12
   13348:	e8bd4010 	pop	{r4, lr}
   1334c:	e28dd00c 	add	sp, sp, #12
   13350:	e12fff1e 	bx	lr
   13354:	e10f2000 	mrs	r2, CPSR
   13358:	f10c0080 	cpsid	i
   1335c:	e30536fc 	movw	r3, #22268	; 0x56fc
   13360:	e3403001 	movt	r3, #1
   13364:	e5931000 	ldr	r1, [r3]
   13368:	e2810001 	add	r0, r1, #1
   1336c:	e5830000 	str	r0, [r3]
   13370:	e3510000 	cmp	r1, #0
   13374:	02222080 	eoreq	r2, r2, #128	; 0x80
   13378:	07e023d2 	ubfxeq	r2, r2, #7, #1
   1337c:	030536fc 	movweq	r3, #22268	; 0x56fc
   13380:	03403001 	movteq	r3, #1
   13384:	05832004 	streq	r2, [r3, #4]
   13388:	f57ff05f 	dmb	sy
   1338c:	e12fff1e 	bx	lr
   13390:	e92d4008 	push	{r3, lr}
   13394:	f57ff05f 	dmb	sy
   13398:	e30536fc 	movw	r3, #22268	; 0x56fc
   1339c:	e3403001 	movt	r3, #1
   133a0:	e5933000 	ldr	r3, [r3]
   133a4:	e3530000 	cmp	r3, #0
   133a8:	1a000005 	bne	0x133c4
   133ac:	e3040bf8 	movw	r0, #19448	; 0x4bf8
   133b0:	e3400001 	movt	r0, #1
   133b4:	e3041c10 	movw	r1, #19472	; 0x4c10
   133b8:	e3401001 	movt	r1, #1
   133bc:	e3a0202e 	mov	r2, #46	; 0x2e
   133c0:	ebfff69c 	bl	0x10e38
   133c4:	e30526fc 	movw	r2, #22268	; 0x56fc
   133c8:	e3402001 	movt	r2, #1
   133cc:	e5923000 	ldr	r3, [r2]
   133d0:	e2433001 	sub	r3, r3, #1
   133d4:	e5823000 	str	r3, [r2]
   133d8:	e3530000 	cmp	r3, #0
   133dc:	18bd8008 	popne	{r3, pc}
   133e0:	e5923004 	ldr	r3, [r2, #4]
   133e4:	e3530000 	cmp	r3, #0
   133e8:	08bd8008 	popeq	{r3, pc}
   133ec:	f1080080 	cpsie	i
   133f0:	e8bd8008 	pop	{r3, pc}
   133f4:	e3a02000 	mov	r2, #0
   133f8:	e1a03302 	lsl	r3, r2, #6
   133fc:	ee073f56 	mcr	15, 0, r3, cr7, cr6, {2}
   13400:	e3831101 	orr	r1, r3, #1073741824	; 0x40000000
   13404:	ee071f56 	mcr	15, 0, r1, cr7, cr6, {2}
   13408:	e3831102 	orr	r1, r3, #-2147483648	; 0x80000000
   1340c:	ee071f56 	mcr	15, 0, r1, cr7, cr6, {2}
   13410:	e3833103 	orr	r3, r3, #-1073741824	; 0xc0000000
   13414:	ee073f56 	mcr	15, 0, r3, cr7, cr6, {2}
   13418:	e2822001 	add	r2, r2, #1
   1341c:	e3520080 	cmp	r2, #128	; 0x80
   13420:	1afffff4 	bne	0x133f8
   13424:	e3a02000 	mov	r2, #0
   13428:	e1a03302 	lsl	r3, r2, #6
   1342c:	e3831002 	orr	r1, r3, #2
   13430:	ee071f56 	mcr	15, 0, r1, cr7, cr6, {2}
   13434:	e3831222 	orr	r1, r3, #536870914	; 0x20000002
   13438:	ee071f56 	mcr	15, 0, r1, cr7, cr6, {2}
   1343c:	e3831109 	orr	r1, r3, #1073741826	; 0x40000002
   13440:	ee071f56 	mcr	15, 0, r1, cr7, cr6, {2}
   13444:	e3831226 	orr	r1, r3, #1610612738	; 0x60000002
   13448:	ee071f56 	mcr	15, 0, r1, cr7, cr6, {2}
   1344c:	e383110a 	orr	r1, r3, #-2147483646	; 0x80000002
   13450:	ee071f56 	mcr	15, 0, r1, cr7, cr6, {2}
   13454:	e383122a 	orr	r1, r3, #-1610612734	; 0xa0000002
   13458:	ee071f56 	mcr	15, 0, r1, cr7, cr6, {2}
   1345c:	e383110b 	orr	r1, r3, #-1073741822	; 0xc0000002
   13460:	ee071f56 	mcr	15, 0, r1, cr7, cr6, {2}
   13464:	e383322e 	orr	r3, r3, #-536870910	; 0xe0000002
   13468:	ee073f56 	mcr	15, 0, r3, cr7, cr6, {2}
   1346c:	e2822001 	add	r2, r2, #1
   13470:	e3520b01 	cmp	r2, #1024	; 0x400
   13474:	1affffeb 	bne	0x13428
   13478:	e12fff1e 	bx	lr
   1347c:	e3a02000 	mov	r2, #0
   13480:	e1a03302 	lsl	r3, r2, #6
   13484:	ee073f5a 	mcr	15, 0, r3, cr7, cr10, {2}
   13488:	e3831101 	orr	r1, r3, #1073741824	; 0x40000000
   1348c:	ee071f5a 	mcr	15, 0, r1, cr7, cr10, {2}
   13490:	e3831102 	orr	r1, r3, #-2147483648	; 0x80000000
   13494:	ee071f5a 	mcr	15, 0, r1, cr7, cr10, {2}
   13498:	e3833103 	orr	r3, r3, #-1073741824	; 0xc0000000
   1349c:	ee073f5a 	mcr	15, 0, r3, cr7, cr10, {2}
   134a0:	e2822001 	add	r2, r2, #1
   134a4:	e3520080 	cmp	r2, #128	; 0x80
   134a8:	1afffff4 	bne	0x13480
   134ac:	e3a02000 	mov	r2, #0
   134b0:	e1a03302 	lsl	r3, r2, #6
   134b4:	e3831002 	orr	r1, r3, #2
   134b8:	ee071f5a 	mcr	15, 0, r1, cr7, cr10, {2}
   134bc:	e3831222 	orr	r1, r3, #536870914	; 0x20000002
   134c0:	ee071f5a 	mcr	15, 0, r1, cr7, cr10, {2}
   134c4:	e3831109 	orr	r1, r3, #1073741826	; 0x40000002
   134c8:	ee071f5a 	mcr	15, 0, r1, cr7, cr10, {2}
   134cc:	e3831226 	orr	r1, r3, #1610612738	; 0x60000002
   134d0:	ee071f5a 	mcr	15, 0, r1, cr7, cr10, {2}
   134d4:	e383110a 	orr	r1, r3, #-2147483646	; 0x80000002
   134d8:	ee071f5a 	mcr	15, 0, r1, cr7, cr10, {2}
   134dc:	e383122a 	orr	r1, r3, #-1610612734	; 0xa0000002
   134e0:	ee071f5a 	mcr	15, 0, r1, cr7, cr10, {2}
   134e4:	e383110b 	orr	r1, r3, #-1073741822	; 0xc0000002
   134e8:	ee071f5a 	mcr	15, 0, r1, cr7, cr10, {2}
   134ec:	e383322e 	orr	r3, r3, #-536870910	; 0xe0000002
   134f0:	ee073f5a 	mcr	15, 0, r3, cr7, cr10, {2}
   134f4:	e2822001 	add	r2, r2, #1
   134f8:	e3520b01 	cmp	r2, #1024	; 0x400
   134fc:	1affffeb 	bne	0x134b0
   13500:	e12fff1e 	bx	lr
   13504:	ee070f36 	mcr	15, 0, r0, cr7, cr6, {1}
   13508:	e2813040 	add	r3, r1, #64	; 0x40
   1350c:	e353003f 	cmp	r3, #63	; 0x3f
   13510:	912fff1e 	bxls	lr
   13514:	e3c1103f 	bic	r1, r1, #63	; 0x3f
   13518:	e2800040 	add	r0, r0, #64	; 0x40
   1351c:	e0801001 	add	r1, r0, r1
   13520:	ee070f36 	mcr	15, 0, r0, cr7, cr6, {1}
   13524:	e1500001 	cmp	r0, r1
   13528:	e2800040 	add	r0, r0, #64	; 0x40
   1352c:	1afffffb 	bne	0x13520
   13530:	e12fff1e 	bx	lr
   13534:	ee070f3a 	mcr	15, 0, r0, cr7, cr10, {1}
   13538:	e2813040 	add	r3, r1, #64	; 0x40
   1353c:	e353003f 	cmp	r3, #63	; 0x3f
   13540:	912fff1e 	bxls	lr
   13544:	e3c1103f 	bic	r1, r1, #63	; 0x3f
   13548:	e2800040 	add	r0, r0, #64	; 0x40
   1354c:	e0801001 	add	r1, r0, r1
   13550:	ee070f3a 	mcr	15, 0, r0, cr7, cr10, {1}
   13554:	e1500001 	cmp	r0, r1
   13558:	e2800040 	add	r0, r0, #64	; 0x40
   1355c:	1afffffb 	bne	0x13550
   13560:	e12fff1e 	bx	lr
   13564:	ee070f3e 	mcr	15, 0, r0, cr7, cr14, {1}
   13568:	e2813040 	add	r3, r1, #64	; 0x40
   1356c:	e353003f 	cmp	r3, #63	; 0x3f
   13570:	912fff1e 	bxls	lr
   13574:	e3c1103f 	bic	r1, r1, #63	; 0x3f
   13578:	e2800040 	add	r0, r0, #64	; 0x40
   1357c:	e0801001 	add	r1, r0, r1
   13580:	ee070f3e 	mcr	15, 0, r0, cr7, cr14, {1}
   13584:	e1500001 	cmp	r0, r1
   13588:	e2800040 	add	r0, r0, #64	; 0x40
   1358c:	1afffffb 	bne	0x13580
   13590:	e12fff1e 	bx	lr
   13594:	e92d4038 	push	{r3, r4, r5, lr}
   13598:	e1a05001 	mov	r5, r1
   1359c:	e2504000 	subs	r4, r0, #0
   135a0:	1a000005 	bne	0x135bc
   135a4:	e3040784 	movw	r0, #18308	; 0x4784
   135a8:	e3400001 	movt	r0, #1
   135ac:	e3041c20 	movw	r1, #19488	; 0x4c20
   135b0:	e3401001 	movt	r1, #1
   135b4:	e3a02027 	mov	r2, #39	; 0x27
   135b8:	ebfff61e 	bl	0x10e38
   135bc:	e5845000 	str	r5, [r4]
   135c0:	e3a03000 	mov	r3, #0
   135c4:	e5843004 	str	r3, [r4, #4]
   135c8:	e5843008 	str	r3, [r4, #8]
   135cc:	e3053730 	movw	r3, #22320	; 0x5730
   135d0:	e3403005 	movt	r3, #5
   135d4:	e584314c 	str	r3, [r4, #332]	; 0x14c
   135d8:	e300315e 	movw	r3, #350	; 0x15e
   135dc:	e5843150 	str	r3, [r4, #336]	; 0x150
   135e0:	e3053704 	movw	r3, #22276	; 0x5704
   135e4:	e3403001 	movt	r3, #1
   135e8:	e5933000 	ldr	r3, [r3]
   135ec:	e3530000 	cmp	r3, #0
   135f0:	0a000005 	beq	0x1360c
   135f4:	e30408b0 	movw	r0, #18608	; 0x48b0
   135f8:	e3400001 	movt	r0, #1
   135fc:	e3041c20 	movw	r1, #19488	; 0x4c20
   13600:	e3401001 	movt	r1, #1
   13604:	e3a02033 	mov	r2, #51	; 0x33
   13608:	ebfff60a 	bl	0x10e38
   1360c:	e3053704 	movw	r3, #22276	; 0x5704
   13610:	e3403001 	movt	r3, #1
   13614:	e5834000 	str	r4, [r3]
   13618:	e3a03000 	mov	r3, #0
   1361c:	e1a01003 	mov	r1, r3
   13620:	e0842203 	add	r2, r4, r3, lsl #4
   13624:	e582100c 	str	r1, [r2, #12]
   13628:	e2833001 	add	r3, r3, #1
   1362c:	e3530014 	cmp	r3, #20
   13630:	1afffffa 	bne	0x13620
   13634:	e8bd8038 	pop	{r3, r4, r5, pc}
   13638:	e3053704 	movw	r3, #22276	; 0x5704
   1363c:	e3403001 	movt	r3, #1
   13640:	e3a02000 	mov	r2, #0
   13644:	e5832000 	str	r2, [r3]
   13648:	e12fff1e 	bx	lr
   1364c:	e92d4008 	push	{r3, lr}
   13650:	e3500000 	cmp	r0, #0
   13654:	1a000005 	bne	0x13670
   13658:	e3040784 	movw	r0, #18308	; 0x4784
   1365c:	e3400001 	movt	r0, #1
   13660:	e3041c20 	movw	r1, #19488	; 0x4c20
   13664:	e3401001 	movt	r1, #1
   13668:	e3a02057 	mov	r2, #87	; 0x57
   1366c:	ebfff5f1 	bl	0x10e38
   13670:	f57ff05f 	dmb	sy
   13674:	e3030004 	movw	r0, #12292	; 0x3004
   13678:	e3430f00 	movt	r0, #16128	; 0x3f00
   1367c:	ebfff927 	bl	0x11b20
   13680:	f57ff05f 	dmb	sy
   13684:	e8bd8008 	pop	{r3, pc}
   13688:	e92d4010 	push	{r4, lr}
   1368c:	e2504000 	subs	r4, r0, #0
   13690:	1a000005 	bne	0x136ac
   13694:	e3040784 	movw	r0, #18308	; 0x4784
   13698:	e3400001 	movt	r0, #1
   1369c:	e3041c20 	movw	r1, #19488	; 0x4c20
   136a0:	e3401001 	movt	r1, #1
   136a4:	e3a02064 	mov	r2, #100	; 0x64
   136a8:	ebfff5e2 	bl	0x10e38
   136ac:	e5940004 	ldr	r0, [r4, #4]
   136b0:	e8bd8010 	pop	{r4, pc}
   136b4:	e92d4010 	push	{r4, lr}
   136b8:	e2504000 	subs	r4, r0, #0
   136bc:	1a000005 	bne	0x136d8
   136c0:	e3040784 	movw	r0, #18308	; 0x4784
   136c4:	e3400001 	movt	r0, #1
   136c8:	e3041c20 	movw	r1, #19488	; 0x4c20
   136cc:	e3401001 	movt	r1, #1
   136d0:	e3a0206b 	mov	r2, #107	; 0x6b
   136d4:	ebfff5d7 	bl	0x10e38
   136d8:	e5940008 	ldr	r0, [r4, #8]
   136dc:	e8bd8010 	pop	{r4, pc}
   136e0:	e92d43f0 	push	{r4, r5, r6, r7, r8, r9, lr}
   136e4:	e24dd00c 	sub	sp, sp, #12
   136e8:	e2504000 	subs	r4, r0, #0
   136ec:	1a000005 	bne	0x13708
   136f0:	e3040784 	movw	r0, #18308	; 0x4784
   136f4:	e3400001 	movt	r0, #1
   136f8:	e3041c20 	movw	r1, #19488	; 0x4c20
   136fc:	e3401001 	movt	r1, #1
   13700:	e3a02072 	mov	r2, #114	; 0x72
   13704:	ebfff5cb 	bl	0x10e38
   13708:	ebffff11 	bl	0x13354
   1370c:	e5946008 	ldr	r6, [r4, #8]
   13710:	e5944004 	ldr	r4, [r4, #4]
   13714:	ebffff1d 	bl	0x13390
   13718:	e3540000 	cmp	r4, #0
   1371c:	03a00000 	moveq	r0, #0
   13720:	0a000026 	beq	0x137c0
   13724:	e3082889 	movw	r2, #34953	; 0x8889
   13728:	e3482888 	movt	r2, #34952	; 0x8888
   1372c:	e0898296 	umull	r8, r9, r6, r2
   13730:	e1a052a9 	lsr	r5, r9, #5
   13734:	e3a0103c 	mov	r1, #60	; 0x3c
   13738:	e0656591 	mls	r5, r1, r5, r6
   1373c:	e1a002a9 	lsr	r0, r9, #5
   13740:	e0832290 	umull	r2, r3, r0, r2
   13744:	e1a062a3 	lsr	r6, r3, #5
   13748:	e0660691 	mls	r6, r1, r6, r0
   1374c:	e1a072a3 	lsr	r7, r3, #5
   13750:	e308251f 	movw	r2, #34079	; 0x851f
   13754:	e34521eb 	movt	r2, #20971	; 0x51eb
   13758:	e0832294 	umull	r2, r3, r4, r2
   1375c:	e1a082a3 	lsr	r8, r3, #5
   13760:	e3a03064 	mov	r3, #100	; 0x64
   13764:	e0684893 	mls	r8, r3, r8, r4
   13768:	e3a0000c 	mov	r0, #12
   1376c:	ebfff4e1 	bl	0x10af8
   13770:	e2504000 	subs	r4, r0, #0
   13774:	1a000005 	bne	0x13790
   13778:	e3040c28 	movw	r0, #19496	; 0x4c28
   1377c:	e3400001 	movt	r0, #1
   13780:	e3041c20 	movw	r1, #19488	; 0x4c20
   13784:	e3401001 	movt	r1, #1
   13788:	e3a0208c 	mov	r2, #140	; 0x8c
   1378c:	ebfff5a9 	bl	0x10e38
   13790:	e1a00004 	mov	r0, r4
   13794:	ebfffc3e 	bl	0x12894
   13798:	e58d5000 	str	r5, [sp]
   1379c:	e58d8004 	str	r8, [sp, #4]
   137a0:	e1a00004 	mov	r0, r4
   137a4:	e3041c38 	movw	r1, #19512	; 0x4c38
   137a8:	e3401001 	movt	r1, #1
   137ac:	e1a02007 	mov	r2, r7
   137b0:	e1a03006 	mov	r3, r6
   137b4:	ebfffed2 	bl	0x13304
   137b8:	e1a00004 	mov	r0, r4
   137bc:	eaffffff 	b	0x137c0
   137c0:	e28dd00c 	add	sp, sp, #12
   137c4:	e8bd83f0 	pop	{r4, r5, r6, r7, r8, r9, pc}
   137c8:	e92d41f0 	push	{r4, r5, r6, r7, r8, lr}
   137cc:	e1a07001 	mov	r7, r1
   137d0:	e1a08002 	mov	r8, r2
   137d4:	e1a06003 	mov	r6, r3
   137d8:	e2505000 	subs	r5, r0, #0
   137dc:	1a000005 	bne	0x137f8
   137e0:	e3040784 	movw	r0, #18308	; 0x4784
   137e4:	e3400001 	movt	r0, #1
   137e8:	e3041c20 	movw	r1, #19488	; 0x4c20
   137ec:	e3401001 	movt	r1, #1
   137f0:	e3a02096 	mov	r2, #150	; 0x96
   137f4:	ebfff58f 	bl	0x10e38
   137f8:	ebfffed5 	bl	0x13354
   137fc:	e595300c 	ldr	r3, [r5, #12]
   13800:	e3530000 	cmp	r3, #0
   13804:	0a000023 	beq	0x13898
   13808:	e3a04001 	mov	r4, #1
   1380c:	e0853204 	add	r3, r5, r4, lsl #4
   13810:	e593300c 	ldr	r3, [r3, #12]
   13814:	e3530000 	cmp	r3, #0
   13818:	0a00001f 	beq	0x1389c
   1381c:	e2844001 	add	r4, r4, #1
   13820:	e3540014 	cmp	r4, #20
   13824:	1afffff8 	bne	0x1380c
   13828:	ea000010 	b	0x13870
   1382c:	e3040c50 	movw	r0, #19536	; 0x4c50
   13830:	e3400001 	movt	r0, #1
   13834:	e3041c20 	movw	r1, #19488	; 0x4c20
   13838:	e3401001 	movt	r1, #1
   1383c:	e3a020ac 	mov	r2, #172	; 0xac
   13840:	ebfff57c 	bl	0x10e38
   13844:	e0853204 	add	r3, r5, r4, lsl #4
   13848:	e583800c 	str	r8, [r3, #12]
   1384c:	e5951004 	ldr	r1, [r5, #4]
   13850:	e0871001 	add	r1, r7, r1
   13854:	e5831010 	str	r1, [r3, #16]
   13858:	e5836014 	str	r6, [r3, #20]
   1385c:	e59d2018 	ldr	r2, [sp, #24]
   13860:	e5832018 	str	r2, [r3, #24]
   13864:	ebfffec9 	bl	0x13390
   13868:	e2840001 	add	r0, r4, #1
   1386c:	e8bd81f0 	pop	{r4, r5, r6, r7, r8, pc}
   13870:	ebfffec6 	bl	0x13390
   13874:	ebfff7e8 	bl	0x1181c
   13878:	e3041c60 	movw	r1, #19552	; 0x4c60
   1387c:	e3401001 	movt	r1, #1
   13880:	e3a02000 	mov	r2, #0
   13884:	e3043c68 	movw	r3, #19560	; 0x4c68
   13888:	e3403001 	movt	r3, #1
   1388c:	ebfff88d 	bl	0x11ac8
   13890:	e3a00000 	mov	r0, #0
   13894:	e8bd81f0 	pop	{r4, r5, r6, r7, r8, pc}
   13898:	e3a04000 	mov	r4, #0
   1389c:	e3580000 	cmp	r8, #0
   138a0:	1affffe7 	bne	0x13844
   138a4:	eaffffe0 	b	0x1382c
   138a8:	e92d4038 	push	{r3, r4, r5, lr}
   138ac:	e1a04001 	mov	r4, r1
   138b0:	e2505000 	subs	r5, r0, #0
   138b4:	1a000005 	bne	0x138d0
   138b8:	e3040784 	movw	r0, #18308	; 0x4784
   138bc:	e3400001 	movt	r0, #1
   138c0:	e3041c20 	movw	r1, #19488	; 0x4c20
   138c4:	e3401001 	movt	r1, #1
   138c8:	e3a020b9 	mov	r2, #185	; 0xb9
   138cc:	ebfff559 	bl	0x10e38
   138d0:	e2444001 	sub	r4, r4, #1
   138d4:	e3540013 	cmp	r4, #19
   138d8:	9a000005 	bls	0x138f4
   138dc:	e3040c90 	movw	r0, #19600	; 0x4c90
   138e0:	e3400001 	movt	r0, #1
   138e4:	e3041c20 	movw	r1, #19488	; 0x4c20
   138e8:	e3401001 	movt	r1, #1
   138ec:	e3a020bb 	mov	r2, #187	; 0xbb
   138f0:	ebfff550 	bl	0x10e38
   138f4:	e0854204 	add	r4, r5, r4, lsl #4
   138f8:	e3a03000 	mov	r3, #0
   138fc:	e584300c 	str	r3, [r4, #12]
   13900:	e8bd8038 	pop	{r3, r4, r5, pc}
   13904:	e92d4038 	push	{r3, r4, r5, lr}
   13908:	e1a04001 	mov	r4, r1
   1390c:	e2505000 	subs	r5, r0, #0
   13910:	1a000005 	bne	0x1392c
   13914:	e3040784 	movw	r0, #18308	; 0x4784
   13918:	e3400001 	movt	r0, #1
   1391c:	e3041c20 	movw	r1, #19488	; 0x4c20
   13920:	e3401001 	movt	r1, #1
   13924:	e3a020c1 	mov	r2, #193	; 0xc1
   13928:	ebfff542 	bl	0x10e38
   1392c:	e3540000 	cmp	r4, #0
   13930:	08bd8038 	popeq	{r3, r4, r5, pc}
   13934:	e595014c 	ldr	r0, [r5, #332]	; 0x14c
   13938:	e0000490 	mul	r0, r0, r4
   1393c:	eb00034d 	bl	0x14678
   13940:	e8bd8038 	pop	{r3, r4, r5, pc}
   13944:	e92d4038 	push	{r3, r4, r5, lr}
   13948:	e1a04001 	mov	r4, r1
   1394c:	e2505000 	subs	r5, r0, #0
   13950:	1a000005 	bne	0x1396c
   13954:	e3040784 	movw	r0, #18308	; 0x4784
   13958:	e3400001 	movt	r0, #1
   1395c:	e3041c20 	movw	r1, #19488	; 0x4c20
   13960:	e3401001 	movt	r1, #1
   13964:	e3a020cd 	mov	r2, #205	; 0xcd
   13968:	ebfff532 	bl	0x10e38
   1396c:	e3540000 	cmp	r4, #0
   13970:	08bd8038 	popeq	{r3, r4, r5, pc}
   13974:	e5950150 	ldr	r0, [r5, #336]	; 0x150
   13978:	e0000490 	mul	r0, r0, r4
   1397c:	eb00033d 	bl	0x14678
   13980:	e8bd8038 	pop	{r3, r4, r5, pc}
   13984:	e92d4008 	push	{r3, lr}
   13988:	e3053704 	movw	r3, #22276	; 0x5704
   1398c:	e3403001 	movt	r3, #1
   13990:	e5933000 	ldr	r3, [r3]
   13994:	e3530000 	cmp	r3, #0
   13998:	1a000005 	bne	0x139b4
   1399c:	e304091c 	movw	r0, #18716	; 0x491c
   139a0:	e3400001 	movt	r0, #1
   139a4:	e3041c20 	movw	r1, #19488	; 0x4c20
   139a8:	e3401001 	movt	r1, #1
   139ac:	e3a020d9 	mov	r2, #217	; 0xd9
   139b0:	ebfff520 	bl	0x10e38
   139b4:	e3053704 	movw	r3, #22276	; 0x5704
   139b8:	e3403001 	movt	r3, #1
   139bc:	e5930000 	ldr	r0, [r3]
   139c0:	e8bd8008 	pop	{r3, pc}
   139c4:	e3500000 	cmp	r0, #0
   139c8:	012fff1e 	bxeq	lr
   139cc:	e92d4070 	push	{r4, r5, r6, lr}
   139d0:	e1a04000 	mov	r4, r0
   139d4:	f57ff05f 	dmb	sy
   139d8:	e3030004 	movw	r0, #12292	; 0x3004
   139dc:	e3430f00 	movt	r0, #16128	; 0x3f00
   139e0:	ebfff84e 	bl	0x11b20
   139e4:	e1a06000 	mov	r6, r0
   139e8:	e3035004 	movw	r5, #12292	; 0x3004
   139ec:	e3435f00 	movt	r5, #16128	; 0x3f00
   139f0:	e1a00005 	mov	r0, r5
   139f4:	ebfff849 	bl	0x11b20
   139f8:	e0660000 	rsb	r0, r6, r0
   139fc:	e1540000 	cmp	r4, r0
   13a00:	8afffffa 	bhi	0x139f0
   13a04:	f57ff05f 	dmb	sy
   13a08:	e8bd8070 	pop	{r4, r5, r6, pc}
   13a0c:	e3500000 	cmp	r0, #0
   13a10:	012fff1e 	bxeq	lr
   13a14:	e92d4008 	push	{r3, lr}
   13a18:	e3a03ffa 	mov	r3, #1000	; 0x3e8
   13a1c:	e0000093 	mul	r0, r3, r0
   13a20:	ebffffe7 	bl	0x139c4
   13a24:	e8bd8008 	pop	{r3, pc}
   13a28:	e92d4070 	push	{r4, r5, r6, lr}
   13a2c:	e2505000 	subs	r5, r0, #0
   13a30:	1a000005 	bne	0x13a4c
   13a34:	e3040784 	movw	r0, #18308	; 0x4784
   13a38:	e3400001 	movt	r0, #1
   13a3c:	e3041c20 	movw	r1, #19488	; 0x4c20
   13a40:	e3401001 	movt	r1, #1
   13a44:	e3a020f9 	mov	r2, #249	; 0xf9
   13a48:	ebfff4fa 	bl	0x10e38
   13a4c:	ebfffe40 	bl	0x13354
   13a50:	e3a04000 	mov	r4, #0
   13a54:	e1a06004 	mov	r6, r4
   13a58:	e0853204 	add	r3, r5, r4, lsl #4
   13a5c:	e593c00c 	ldr	ip, [r3, #12]
   13a60:	e35c0000 	cmp	ip, #0
   13a64:	0a00000a 	beq	0x13a94
   13a68:	e5933010 	ldr	r3, [r3, #16]
   13a6c:	e5952004 	ldr	r2, [r5, #4]
   13a70:	e0623003 	rsb	r3, r2, r3
   13a74:	e3530000 	cmp	r3, #0
   13a78:	ca000005 	bgt	0x13a94
   13a7c:	e0853204 	add	r3, r5, r4, lsl #4
   13a80:	e583600c 	str	r6, [r3, #12]
   13a84:	e5931014 	ldr	r1, [r3, #20]
   13a88:	e5932018 	ldr	r2, [r3, #24]
   13a8c:	e2840001 	add	r0, r4, #1
   13a90:	e12fff3c 	blx	ip
   13a94:	e2844001 	add	r4, r4, #1
   13a98:	e3540014 	cmp	r4, #20
   13a9c:	1affffed 	bne	0x13a58
   13aa0:	ebfffe3a 	bl	0x13390
   13aa4:	e8bd8070 	pop	{r4, r5, r6, pc}
   13aa8:	e92d4070 	push	{r4, r5, r6, lr}
   13aac:	e2504000 	subs	r4, r0, #0
   13ab0:	1a000005 	bne	0x13acc
   13ab4:	e3040784 	movw	r0, #18308	; 0x4784
   13ab8:	e3400001 	movt	r0, #1
   13abc:	e3041c20 	movw	r1, #19488	; 0x4c20
   13ac0:	e3401001 	movt	r1, #1
   13ac4:	e3002113 	movw	r2, #275	; 0x113
   13ac8:	ebfff4da 	bl	0x10e38
   13acc:	f57ff05f 	dmb	sy
   13ad0:	e3a00a03 	mov	r0, #12288	; 0x3000
   13ad4:	e3430f00 	movt	r0, #16128	; 0x3f00
   13ad8:	ebfff810 	bl	0x11b20
   13adc:	e3100008 	tst	r0, #8
   13ae0:	1a000005 	bne	0x13afc
   13ae4:	e3040cb8 	movw	r0, #19640	; 0x4cb8
   13ae8:	e3400001 	movt	r0, #1
   13aec:	e3041c20 	movw	r1, #19488	; 0x4c20
   13af0:	e3401001 	movt	r1, #1
   13af4:	e3002117 	movw	r2, #279	; 0x117
   13af8:	ebfff4ce 	bl	0x10e38
   13afc:	e3036018 	movw	r6, #12312	; 0x3018
   13b00:	e3436f00 	movt	r6, #16128	; 0x3f00
   13b04:	e1a00006 	mov	r0, r6
   13b08:	ebfff804 	bl	0x11b20
   13b0c:	e2805c27 	add	r5, r0, #9984	; 0x2700
   13b10:	e2855010 	add	r5, r5, #16
   13b14:	e1a00006 	mov	r0, r6
   13b18:	e1a01005 	mov	r1, r5
   13b1c:	ebfff801 	bl	0x11b28
   13b20:	e3030004 	movw	r0, #12292	; 0x3004
   13b24:	e3430f00 	movt	r0, #16128	; 0x3f00
   13b28:	ebfff7fc 	bl	0x11b20
   13b2c:	e1550000 	cmp	r5, r0
   13b30:	2a000007 	bcs	0x13b54
   13b34:	e3030004 	movw	r0, #12292	; 0x3004
   13b38:	e3430f00 	movt	r0, #16128	; 0x3f00
   13b3c:	ebfff7f7 	bl	0x11b20
   13b40:	e2801c27 	add	r1, r0, #9984	; 0x2700
   13b44:	e2811010 	add	r1, r1, #16
   13b48:	e3030018 	movw	r0, #12312	; 0x3018
   13b4c:	e3430f00 	movt	r0, #16128	; 0x3f00
   13b50:	ebfff7f4 	bl	0x11b28
   13b54:	e3a00a03 	mov	r0, #12288	; 0x3000
   13b58:	e3430f00 	movt	r0, #16128	; 0x3f00
   13b5c:	e3a01008 	mov	r1, #8
   13b60:	ebfff7f0 	bl	0x11b28
   13b64:	f57ff05f 	dmb	sy
   13b68:	e5943004 	ldr	r3, [r4, #4]
   13b6c:	e2833001 	add	r3, r3, #1
   13b70:	e5843004 	str	r3, [r4, #4]
   13b74:	e308051f 	movw	r0, #34079	; 0x851f
   13b78:	e34501eb 	movt	r0, #20971	; 0x51eb
   13b7c:	e0810093 	umull	r0, r1, r3, r0
   13b80:	e1a022a1 	lsr	r2, r1, #5
   13b84:	e3a01064 	mov	r1, #100	; 0x64
   13b88:	e0633291 	mls	r3, r1, r2, r3
   13b8c:	e3530000 	cmp	r3, #0
   13b90:	05943008 	ldreq	r3, [r4, #8]
   13b94:	02833001 	addeq	r3, r3, #1
   13b98:	05843008 	streq	r3, [r4, #8]
   13b9c:	e1a00004 	mov	r0, r4
   13ba0:	ebffffa0 	bl	0x13a28
   13ba4:	e8bd8070 	pop	{r4, r5, r6, pc}
   13ba8:	e92d4038 	push	{r3, r4, r5, lr}
   13bac:	e2504000 	subs	r4, r0, #0
   13bb0:	1a000005 	bne	0x13bcc
   13bb4:	e3040784 	movw	r0, #18308	; 0x4784
   13bb8:	e3400001 	movt	r0, #1
   13bbc:	e3041c20 	movw	r1, #19488	; 0x4c20
   13bc0:	e3401001 	movt	r1, #1
   13bc4:	e300212f 	movw	r2, #303	; 0x12f
   13bc8:	ebfff49a 	bl	0x10e38
   13bcc:	e1a00004 	mov	r0, r4
   13bd0:	ebfffeac 	bl	0x13688
   13bd4:	e1a05000 	mov	r5, r0
   13bd8:	e1a00004 	mov	r0, r4
   13bdc:	e3a01ffa 	mov	r1, #1000	; 0x3e8
   13be0:	ebffff47 	bl	0x13904
   13be4:	e1a00004 	mov	r0, r4
   13be8:	ebfffea6 	bl	0x13688
   13bec:	e0651000 	rsb	r1, r5, r0
   13bf0:	e3020710 	movw	r0, #10000	; 0x2710
   13bf4:	eb0002a2 	bl	0x14684
   13bf8:	e594314c 	ldr	r3, [r4, #332]	; 0x14c
   13bfc:	e0000093 	mul	r0, r3, r0
   13c00:	e308351f 	movw	r3, #34079	; 0x851f
   13c04:	e34531eb 	movt	r3, #20971	; 0x51eb
   13c08:	e0810390 	umull	r0, r1, r0, r3
   13c0c:	e1a022a1 	lsr	r2, r1, #5
   13c10:	e584214c 	str	r2, [r4, #332]	; 0x14c
   13c14:	e2822f7d 	add	r2, r2, #500	; 0x1f4
   13c18:	e3043dd3 	movw	r3, #19923	; 0x4dd3
   13c1c:	e3413062 	movt	r3, #4194	; 0x1062
   13c20:	e0832392 	umull	r2, r3, r2, r3
   13c24:	e1a03323 	lsr	r3, r3, #6
   13c28:	e5843150 	str	r3, [r4, #336]	; 0x150
   13c2c:	e8bd8038 	pop	{r3, r4, r5, pc}
   13c30:	e92d4038 	push	{r3, r4, r5, lr}
   13c34:	e2504000 	subs	r4, r0, #0
   13c38:	1a000005 	bne	0x13c54
   13c3c:	e3040784 	movw	r0, #18308	; 0x4784
   13c40:	e3400001 	movt	r0, #1
   13c44:	e3041c20 	movw	r1, #19488	; 0x4c20
   13c48:	e3401001 	movt	r1, #1
   13c4c:	e3a02043 	mov	r2, #67	; 0x43
   13c50:	ebfff478 	bl	0x10e38
   13c54:	e5943000 	ldr	r3, [r4]
   13c58:	e3530000 	cmp	r3, #0
   13c5c:	1a000005 	bne	0x13c78
   13c60:	e3040cdc 	movw	r0, #19676	; 0x4cdc
   13c64:	e3400001 	movt	r0, #1
   13c68:	e3041c20 	movw	r1, #19488	; 0x4c20
   13c6c:	e3401001 	movt	r1, #1
   13c70:	e3a02045 	mov	r2, #69	; 0x45
   13c74:	ebfff46f 	bl	0x10e38
   13c78:	e5940000 	ldr	r0, [r4]
   13c7c:	e3a01003 	mov	r1, #3
   13c80:	e3032aa8 	movw	r2, #15016	; 0x3aa8
   13c84:	e3402001 	movt	r2, #1
   13c88:	e1a03004 	mov	r3, r4
   13c8c:	ebfff614 	bl	0x114e4
   13c90:	f57ff05f 	dmb	sy
   13c94:	e3035004 	movw	r5, #12292	; 0x3004
   13c98:	e3435f00 	movt	r5, #16128	; 0x3f00
   13c9c:	e1a00005 	mov	r0, r5
   13ca0:	e3a01df2 	mov	r1, #15488	; 0x3c80
   13ca4:	e34f1e36 	movt	r1, #65078	; 0xfe36
   13ca8:	ebfff79e 	bl	0x11b28
   13cac:	e1a00005 	mov	r0, r5
   13cb0:	ebfff79a 	bl	0x11b20
   13cb4:	e2801c27 	add	r1, r0, #9984	; 0x2700
   13cb8:	e2811010 	add	r1, r1, #16
   13cbc:	e3030018 	movw	r0, #12312	; 0x3018
   13cc0:	e3430f00 	movt	r0, #16128	; 0x3f00
   13cc4:	ebfff797 	bl	0x11b28
   13cc8:	e1a00004 	mov	r0, r4
   13ccc:	ebffffb5 	bl	0x13ba8
   13cd0:	f57ff05f 	dmb	sy
   13cd4:	e3a00001 	mov	r0, #1
   13cd8:	e8bd8038 	pop	{r3, r4, r5, pc}
   13cdc:	e3520000 	cmp	r2, #0
   13ce0:	012fff1e 	bxeq	lr
   13ce4:	e0802002 	add	r2, r0, r2
   13ce8:	e1a03000 	mov	r3, r0
   13cec:	e4c31001 	strb	r1, [r3], #1
   13cf0:	e1530002 	cmp	r3, r2
   13cf4:	1afffffc 	bne	0x13cec
   13cf8:	e12fff1e 	bx	lr
   13cfc:	e3520000 	cmp	r2, #0
   13d00:	012fff1e 	bxeq	lr
   13d04:	e2403001 	sub	r3, r0, #1
   13d08:	e0812002 	add	r2, r1, r2
   13d0c:	e4d1c001 	ldrb	ip, [r1], #1
   13d10:	e5e3c001 	strb	ip, [r3, #1]!
   13d14:	e1510002 	cmp	r1, r2
   13d18:	1afffffb 	bne	0x13d0c
   13d1c:	e12fff1e 	bx	lr
   13d20:	e3520000 	cmp	r2, #0
   13d24:	0a000011 	beq	0x13d70
   13d28:	e5d0c000 	ldrb	ip, [r0]
   13d2c:	e5d13000 	ldrb	r3, [r1]
   13d30:	e15c0003 	cmp	ip, r3
   13d34:	8a00000f 	bhi	0x13d78
   13d38:	3a000010 	bcc	0x13d80
   13d3c:	e52de004 	push	{lr}		; (str lr, [sp, #-4]!)
   13d40:	e2803001 	add	r3, r0, #1
   13d44:	e0800002 	add	r0, r0, r2
   13d48:	ea000004 	b	0x13d60
   13d4c:	e4d3e001 	ldrb	lr, [r3], #1
   13d50:	e5f1c001 	ldrb	ip, [r1, #1]!
   13d54:	e15e000c 	cmp	lr, ip
   13d58:	8a00000a 	bhi	0x13d88
   13d5c:	3a00000b 	bcc	0x13d90
   13d60:	e1530000 	cmp	r3, r0
   13d64:	1afffff8 	bne	0x13d4c
   13d68:	e3a00000 	mov	r0, #0
   13d6c:	e49df004 	pop	{pc}		; (ldr pc, [sp], #4)
   13d70:	e3a00000 	mov	r0, #0
   13d74:	e12fff1e 	bx	lr
   13d78:	e3a00001 	mov	r0, #1
   13d7c:	e12fff1e 	bx	lr
   13d80:	e3e00000 	mvn	r0, #0
   13d84:	e12fff1e 	bx	lr
   13d88:	e3a00001 	mov	r0, #1
   13d8c:	e49df004 	pop	{pc}		; (ldr pc, [sp], #4)
   13d90:	e3e00000 	mvn	r0, #0
   13d94:	e49df004 	pop	{pc}		; (ldr pc, [sp], #4)
   13d98:	e1a01000 	mov	r1, r0
   13d9c:	e2803001 	add	r3, r0, #1
   13da0:	e1d020d0 	ldrsb	r2, [r0]
   13da4:	e3520000 	cmp	r2, #0
   13da8:	0a000004 	beq	0x13dc0
   13dac:	e0610003 	rsb	r0, r1, r3
   13db0:	e0d320d1 	ldrsb	r2, [r3], #1
   13db4:	e3520000 	cmp	r2, #0
   13db8:	1afffffb 	bne	0x13dac
   13dbc:	e12fff1e 	bx	lr
   13dc0:	e3a00000 	mov	r0, #0
   13dc4:	e12fff1e 	bx	lr
   13dc8:	e52de004 	push	{lr}		; (str lr, [sp, #-4]!)
   13dcc:	e5d03000 	ldrb	r3, [r0]
   13dd0:	e3530000 	cmp	r3, #0
   13dd4:	0a000015 	beq	0x13e30
   13dd8:	e5d12000 	ldrb	r2, [r1]
   13ddc:	e3520000 	cmp	r2, #0
   13de0:	0a000012 	beq	0x13e30
   13de4:	e6afc073 	sxtb	ip, r3
   13de8:	e6afe072 	sxtb	lr, r2
   13dec:	e15c000e 	cmp	ip, lr
   13df0:	ca000018 	bgt	0x13e58
   13df4:	ba000019 	blt	0x13e60
   13df8:	e281c001 	add	ip, r1, #1
   13dfc:	ea000004 	b	0x13e14
   13e00:	e6af1073 	sxtb	r1, r3
   13e04:	e6afe072 	sxtb	lr, r2
   13e08:	e151000e 	cmp	r1, lr
   13e0c:	ca000015 	bgt	0x13e68
   13e10:	ba000016 	blt	0x13e70
   13e14:	e1a0100c 	mov	r1, ip
   13e18:	e5f03001 	ldrb	r3, [r0, #1]!
   13e1c:	e3530000 	cmp	r3, #0
   13e20:	0a000002 	beq	0x13e30
   13e24:	e4dc2001 	ldrb	r2, [ip], #1
   13e28:	e3520000 	cmp	r2, #0
   13e2c:	1afffff3 	bne	0x13e00
   13e30:	e5d10000 	ldrb	r0, [r1]
   13e34:	e6af1070 	sxtb	r1, r0
   13e38:	e6af2073 	sxtb	r2, r3
   13e3c:	e1510002 	cmp	r1, r2
   13e40:	ba00000c 	blt	0x13e78
   13e44:	e1a00001 	mov	r0, r1
   13e48:	e1510002 	cmp	r1, r2
   13e4c:	d3a00000 	movle	r0, #0
   13e50:	c3e00000 	mvngt	r0, #0
   13e54:	e49df004 	pop	{pc}		; (ldr pc, [sp], #4)
   13e58:	e3a00001 	mov	r0, #1
   13e5c:	e49df004 	pop	{pc}		; (ldr pc, [sp], #4)
   13e60:	e3e00000 	mvn	r0, #0
   13e64:	e49df004 	pop	{pc}		; (ldr pc, [sp], #4)
   13e68:	e3a00001 	mov	r0, #1
   13e6c:	e49df004 	pop	{pc}		; (ldr pc, [sp], #4)
   13e70:	e3e00000 	mvn	r0, #0
   13e74:	e49df004 	pop	{pc}		; (ldr pc, [sp], #4)
   13e78:	e3a00001 	mov	r0, #1
   13e7c:	e49df004 	pop	{pc}		; (ldr pc, [sp], #4)
   13e80:	e5d13000 	ldrb	r3, [r1]
   13e84:	e3530000 	cmp	r3, #0
   13e88:	0a000005 	beq	0x13ea4
   13e8c:	e1a02000 	mov	r2, r0
   13e90:	e4c23001 	strb	r3, [r2], #1
   13e94:	e5f13001 	ldrb	r3, [r1, #1]!
   13e98:	e3530000 	cmp	r3, #0
   13e9c:	1afffffb 	bne	0x13e90
   13ea0:	ea000000 	b	0x13ea8
   13ea4:	e1a02000 	mov	r2, r0
   13ea8:	e3a03000 	mov	r3, #0
   13eac:	e5c23000 	strb	r3, [r2]
   13eb0:	e12fff1e 	bx	lr
   13eb4:	e3520000 	cmp	r2, #0
   13eb8:	012fff1e 	bxeq	lr
   13ebc:	e52de004 	push	{lr}		; (str lr, [sp, #-4]!)
   13ec0:	e5d13000 	ldrb	r3, [r1]
   13ec4:	e3530000 	cmp	r3, #0
   13ec8:	0a00000a 	beq	0x13ef8
   13ecc:	e281c001 	add	ip, r1, #1
   13ed0:	e0811002 	add	r1, r1, r2
   13ed4:	e1a0e000 	mov	lr, r0
   13ed8:	ea000002 	b	0x13ee8
   13edc:	e4dc3001 	ldrb	r3, [ip], #1
   13ee0:	e3530000 	cmp	r3, #0
   13ee4:	0a000004 	beq	0x13efc
   13ee8:	e4ce3001 	strb	r3, [lr], #1
   13eec:	e15c0001 	cmp	ip, r1
   13ef0:	1afffff9 	bne	0x13edc
   13ef4:	e49df004 	pop	{pc}		; (ldr pc, [sp], #4)
   13ef8:	e1a0e000 	mov	lr, r0
   13efc:	e3a03000 	mov	r3, #0
   13f00:	e5ce3000 	strb	r3, [lr]
   13f04:	e49df004 	pop	{pc}		; (ldr pc, [sp], #4)
   13f08:	e1d030d0 	ldrsb	r3, [r0]
   13f0c:	e3530000 	cmp	r3, #0
   13f10:	0a000004 	beq	0x13f28
   13f14:	e1a03000 	mov	r3, r0
   13f18:	e1f320d1 	ldrsb	r2, [r3, #1]!
   13f1c:	e3520000 	cmp	r2, #0
   13f20:	1afffffc 	bne	0x13f18
   13f24:	ea000000 	b	0x13f2c
   13f28:	e1a03000 	mov	r3, r0
   13f2c:	e5d12000 	ldrb	r2, [r1]
   13f30:	e3520000 	cmp	r2, #0
   13f34:	0a000003 	beq	0x13f48
   13f38:	e4c32001 	strb	r2, [r3], #1
   13f3c:	e5f12001 	ldrb	r2, [r1, #1]!
   13f40:	e3520000 	cmp	r2, #0
   13f44:	1afffffb 	bne	0x13f38
   13f48:	e3a02000 	mov	r2, #0
   13f4c:	e5c32000 	strb	r2, [r3]
   13f50:	e12fff1e 	bx	lr
   13f54:	e12fff1e 	bx	lr
   13f58:	e1a03420 	lsr	r3, r0, #8
   13f5c:	e1830400 	orr	r0, r3, r0, lsl #8
   13f60:	e6ff0070 	uxth	r0, r0
   13f64:	e12fff1e 	bx	lr
   13f68:	e1a03c00 	lsl	r3, r0, #24
   13f6c:	e1833c20 	orr	r3, r3, r0, lsr #24
   13f70:	e2002cff 	and	r2, r0, #65280	; 0xff00
   13f74:	e1833402 	orr	r3, r3, r2, lsl #8
   13f78:	e20008ff 	and	r0, r0, #16711680	; 0xff0000
   13f7c:	e1830420 	orr	r0, r3, r0, lsr #8
   13f80:	e12fff1e 	bx	lr
   13f84:	e92d0079 	push	{r0, r3, r4, r5, r6}
   13f88:	e8b10078 	ldm	r1!, {r3, r4, r5, r6}
   13f8c:	e2522010 	subs	r2, r2, #16
   13f90:	e8a00078 	stmia	r0!, {r3, r4, r5, r6}
   13f94:	f5d1f040 	pld	[r1, #64]	; 0x40
   13f98:	1afffffa 	bne	0x13f88
   13f9c:	e8bd0079 	pop	{r0, r3, r4, r5, r6}
   13fa0:	e12fff1e 	bx	lr
   13fa4:	e92d4038 	push	{r3, r4, r5, lr}
   13fa8:	e1a05001 	mov	r5, r1
   13fac:	e2504000 	subs	r4, r0, #0
   13fb0:	1a000005 	bne	0x13fcc
   13fb4:	e3040784 	movw	r0, #18308	; 0x4784
   13fb8:	e3400001 	movt	r0, #1
   13fbc:	e3041cfc 	movw	r1, #19708	; 0x4cfc
   13fc0:	e3401001 	movt	r1, #1
   13fc4:	e3a02020 	mov	r2, #32
   13fc8:	ebfff39a 	bl	0x10e38
   13fcc:	e5845000 	str	r5, [r4]
   13fd0:	e8bd8038 	pop	{r3, r4, r5, pc}
   13fd4:	e3500000 	cmp	r0, #0
   13fd8:	112fff1e 	bxne	lr
   13fdc:	e92d4008 	push	{r3, lr}
   13fe0:	e3040784 	movw	r0, #18308	; 0x4784
   13fe4:	e3400001 	movt	r0, #1
   13fe8:	e3041cfc 	movw	r1, #19708	; 0x4cfc
   13fec:	e3401001 	movt	r1, #1
   13ff0:	e3a02027 	mov	r2, #39	; 0x27
   13ff4:	ebfff38f 	bl	0x10e38
   13ff8:	e8bd8008 	pop	{r3, pc}
   13ffc:	e92d4038 	push	{r3, r4, r5, lr}
   14000:	e3500000 	cmp	r0, #0
   14004:	1a000005 	bne	0x14020
   14008:	e3040784 	movw	r0, #18308	; 0x4784
   1400c:	e3400001 	movt	r0, #1
   14010:	e3041cfc 	movw	r1, #19708	; 0x4cfc
   14014:	e3401001 	movt	r1, #1
   14018:	e3a0203e 	mov	r2, #62	; 0x3e
   1401c:	ebfff385 	bl	0x10e38
   14020:	e30b4898 	movw	r4, #47256	; 0xb898
   14024:	e3434f00 	movt	r4, #16128	; 0x3f00
   14028:	e30b5880 	movw	r5, #47232	; 0xb880
   1402c:	e3435f00 	movt	r5, #16128	; 0x3f00
   14030:	ea000003 	b	0x14044
   14034:	e1a00005 	mov	r0, r5
   14038:	ebfff6b8 	bl	0x11b20
   1403c:	e3a00014 	mov	r0, #20
   14040:	ebfffe71 	bl	0x13a0c
   14044:	e1a00004 	mov	r0, r4
   14048:	ebfff6b4 	bl	0x11b20
   1404c:	e3100101 	tst	r0, #1073741824	; 0x40000000
   14050:	0afffff7 	beq	0x14034
   14054:	e8bd8038 	pop	{r3, r4, r5, pc}
   14058:	e92d4070 	push	{r4, r5, r6, lr}
   1405c:	e2506000 	subs	r6, r0, #0
   14060:	1a000005 	bne	0x1407c
   14064:	e3040784 	movw	r0, #18308	; 0x4784
   14068:	e3400001 	movt	r0, #1
   1406c:	e3041cfc 	movw	r1, #19708	; 0x4cfc
   14070:	e3401001 	movt	r1, #1
   14074:	e3a0204a 	mov	r2, #74	; 0x4a
   14078:	ebfff36e 	bl	0x10e38
   1407c:	e30b4898 	movw	r4, #47256	; 0xb898
   14080:	e3434f00 	movt	r4, #16128	; 0x3f00
   14084:	e30b5880 	movw	r5, #47232	; 0xb880
   14088:	e3435f00 	movt	r5, #16128	; 0x3f00
   1408c:	e1a00004 	mov	r0, r4
   14090:	ebfff6a2 	bl	0x11b20
   14094:	e3100101 	tst	r0, #1073741824	; 0x40000000
   14098:	1afffffb 	bne	0x1408c
   1409c:	e1a00005 	mov	r0, r5
   140a0:	ebfff69e 	bl	0x11b20
   140a4:	e200200f 	and	r2, r0, #15
   140a8:	e5963000 	ldr	r3, [r6]
   140ac:	e1520003 	cmp	r2, r3
   140b0:	1afffff5 	bne	0x1408c
   140b4:	e3c0000f 	bic	r0, r0, #15
   140b8:	e8bd8070 	pop	{r4, r5, r6, pc}
   140bc:	e92d4070 	push	{r4, r5, r6, lr}
   140c0:	e1a05001 	mov	r5, r1
   140c4:	e2506000 	subs	r6, r0, #0
   140c8:	1a000005 	bne	0x140e4
   140cc:	e3040784 	movw	r0, #18308	; 0x4784
   140d0:	e3400001 	movt	r0, #1
   140d4:	e3041cfc 	movw	r1, #19708	; 0x4cfc
   140d8:	e3401001 	movt	r1, #1
   140dc:	e3a0205e 	mov	r2, #94	; 0x5e
   140e0:	ebfff354 	bl	0x10e38
   140e4:	e30b4898 	movw	r4, #47256	; 0xb898
   140e8:	e3434f00 	movt	r4, #16128	; 0x3f00
   140ec:	e1a00004 	mov	r0, r4
   140f0:	ebfff68a 	bl	0x11b20
   140f4:	e3500000 	cmp	r0, #0
   140f8:	bafffffb 	blt	0x140ec
   140fc:	e315000f 	tst	r5, #15
   14100:	0a000005 	beq	0x1411c
   14104:	e3040d0c 	movw	r0, #19724	; 0x4d0c
   14108:	e3400001 	movt	r0, #1
   1410c:	e3041cfc 	movw	r1, #19708	; 0x4cfc
   14110:	e3401001 	movt	r1, #1
   14114:	e3a02065 	mov	r2, #101	; 0x65
   14118:	ebfff346 	bl	0x10e38
   1411c:	e5961000 	ldr	r1, [r6]
   14120:	e30b08a0 	movw	r0, #47264	; 0xb8a0
   14124:	e3430f00 	movt	r0, #16128	; 0x3f00
   14128:	e1851001 	orr	r1, r5, r1
   1412c:	ebfff67d 	bl	0x11b28
   14130:	e8bd8070 	pop	{r4, r5, r6, pc}
   14134:	e92d4038 	push	{r3, r4, r5, lr}
   14138:	e1a05001 	mov	r5, r1
   1413c:	e2504000 	subs	r4, r0, #0
   14140:	1a000005 	bne	0x1415c
   14144:	e3040784 	movw	r0, #18308	; 0x4784
   14148:	e3400001 	movt	r0, #1
   1414c:	e3041cfc 	movw	r1, #19708	; 0x4cfc
   14150:	e3401001 	movt	r1, #1
   14154:	e3a0202d 	mov	r2, #45	; 0x2d
   14158:	ebfff336 	bl	0x10e38
   1415c:	f57ff05f 	dmb	sy
   14160:	e1a00004 	mov	r0, r4
   14164:	ebffffa4 	bl	0x13ffc
   14168:	e1a00004 	mov	r0, r4
   1416c:	e1a01005 	mov	r1, r5
   14170:	ebffffd1 	bl	0x140bc
   14174:	e1a00004 	mov	r0, r4
   14178:	ebffffb6 	bl	0x14058
   1417c:	f57ff05f 	dmb	sy
   14180:	e8bd8038 	pop	{r3, r4, r5, pc}
   14184:	e92d40f0 	push	{r4, r5, r6, r7, lr}
   14188:	e24dd024 	sub	sp, sp, #36	; 0x24
   1418c:	e1a05001 	mov	r5, r1
   14190:	e1a06002 	mov	r6, r2
   14194:	e1a07003 	mov	r7, r3
   14198:	e2504000 	subs	r4, r0, #0
   1419c:	1a000005 	bne	0x141b8
   141a0:	e3040784 	movw	r0, #18308	; 0x4784
   141a4:	e3400001 	movt	r0, #1
   141a8:	e3041d20 	movw	r1, #19744	; 0x4d20
   141ac:	e3401001 	movt	r1, #1
   141b0:	e3a0201e 	mov	r2, #30
   141b4:	ebfff31f 	bl	0x10e38
   141b8:	e2840004 	add	r0, r4, #4
   141bc:	e3a01001 	mov	r1, #1
   141c0:	ebffff77 	bl	0x13fa4
   141c4:	e3560000 	cmp	r6, #0
   141c8:	13550000 	cmpne	r5, #0
   141cc:	1a00001b 	bne	0x14240
   141d0:	e28d0008 	add	r0, sp, #8
   141d4:	ebfff339 	bl	0x10ec0
   141d8:	e3a03000 	mov	r3, #0
   141dc:	e58d3000 	str	r3, [sp]
   141e0:	e28d0008 	add	r0, sp, #8
   141e4:	e3a01003 	mov	r1, #3
   141e8:	e3401004 	movt	r1, #4
   141ec:	e28d200c 	add	r2, sp, #12
   141f0:	e3a03014 	mov	r3, #20
   141f4:	ebfff34a 	bl	0x10f24
   141f8:	e3500000 	cmp	r0, #0
   141fc:	03a06e1e 	moveq	r6, #480	; 0x1e0
   14200:	03a05d0a 	moveq	r5, #640	; 0x280
   14204:	0a00000b 	beq	0x14238
   14208:	e59d5018 	ldr	r5, [sp, #24]
   1420c:	e59d601c 	ldr	r6, [sp, #28]
   14210:	e2453d0a 	sub	r3, r5, #640	; 0x280
   14214:	e3530c05 	cmp	r3, #1280	; 0x500
   14218:	83a06e1e 	movhi	r6, #480	; 0x1e0
   1421c:	83a05d0a 	movhi	r5, #640	; 0x280
   14220:	8a000004 	bhi	0x14238
   14224:	e2463e1e 	sub	r3, r6, #480	; 0x1e0
   14228:	e3530f96 	cmp	r3, #600	; 0x258
   1422c:	83a06e1e 	movhi	r6, #480	; 0x1e0
   14230:	83a05d0a 	movhi	r5, #640	; 0x280
   14234:	eaffffff 	b	0x14238
   14238:	e28d0008 	add	r0, sp, #8
   1423c:	ebfff32c 	bl	0x10ef4
   14240:	e3570008 	cmp	r7, #8
   14244:	1a000007 	bne	0x14268
   14248:	e3a00f8a 	mov	r0, #552	; 0x228
   1424c:	ebfff229 	bl	0x10af8
   14250:	e5840000 	str	r0, [r4]
   14254:	e2800028 	add	r0, r0, #40	; 0x28
   14258:	e3a01000 	mov	r1, #0
   1425c:	e3a02c02 	mov	r2, #512	; 0x200
   14260:	ebfffe9d 	bl	0x13cdc
   14264:	ea000002 	b	0x14274
   14268:	e3a00028 	mov	r0, #40	; 0x28
   1426c:	ebfff221 	bl	0x10af8
   14270:	e5840000 	str	r0, [r4]
   14274:	e5943000 	ldr	r3, [r4]
   14278:	e5835000 	str	r5, [r3]
   1427c:	e5943000 	ldr	r3, [r4]
   14280:	e5836004 	str	r6, [r3, #4]
   14284:	e5943000 	ldr	r3, [r4]
   14288:	e5835008 	str	r5, [r3, #8]
   1428c:	e5943000 	ldr	r3, [r4]
   14290:	e583600c 	str	r6, [r3, #12]
   14294:	e5942000 	ldr	r2, [r4]
   14298:	e3a03000 	mov	r3, #0
   1429c:	e5823010 	str	r3, [r2, #16]
   142a0:	e5942000 	ldr	r2, [r4]
   142a4:	e5827014 	str	r7, [r2, #20]
   142a8:	e5942000 	ldr	r2, [r4]
   142ac:	e5823018 	str	r3, [r2, #24]
   142b0:	e5942000 	ldr	r2, [r4]
   142b4:	e582301c 	str	r3, [r2, #28]
   142b8:	e5942000 	ldr	r2, [r4]
   142bc:	e5823020 	str	r3, [r2, #32]
   142c0:	e5942000 	ldr	r2, [r4]
   142c4:	e5823024 	str	r3, [r2, #36]	; 0x24
   142c8:	e28dd024 	add	sp, sp, #36	; 0x24
   142cc:	e8bd80f0 	pop	{r4, r5, r6, r7, pc}
   142d0:	e92d4010 	push	{r4, lr}
   142d4:	e2504000 	subs	r4, r0, #0
   142d8:	1a000005 	bne	0x142f4
   142dc:	e3040784 	movw	r0, #18308	; 0x4784
   142e0:	e3400001 	movt	r0, #1
   142e4:	e3041d20 	movw	r1, #19744	; 0x4d20
   142e8:	e3401001 	movt	r1, #1
   142ec:	e3a0205b 	mov	r2, #91	; 0x5b
   142f0:	ebfff2d0 	bl	0x10e38
   142f4:	e5940000 	ldr	r0, [r4]
   142f8:	ebfff25a 	bl	0x10c68
   142fc:	e1a00004 	mov	r0, r4
   14300:	e3a03000 	mov	r3, #0
   14304:	e4803004 	str	r3, [r0], #4
   14308:	ebffff31 	bl	0x13fd4
   1430c:	e8bd8010 	pop	{r4, pc}
   14310:	e92d4070 	push	{r4, r5, r6, lr}
   14314:	e1a04001 	mov	r4, r1
   14318:	e1a06002 	mov	r6, r2
   1431c:	e2505000 	subs	r5, r0, #0
   14320:	1a000005 	bne	0x1433c
   14324:	e3040784 	movw	r0, #18308	; 0x4784
   14328:	e3400001 	movt	r0, #1
   1432c:	e3041d20 	movw	r1, #19744	; 0x4d20
   14330:	e3401001 	movt	r1, #1
   14334:	e3a02065 	mov	r2, #101	; 0x65
   14338:	ebfff2be 	bl	0x10e38
   1433c:	e5953000 	ldr	r3, [r5]
   14340:	e5932014 	ldr	r2, [r3, #20]
   14344:	e3520008 	cmp	r2, #8
   14348:	02844014 	addeq	r4, r4, #20
   1434c:	01a04084 	lsleq	r4, r4, #1
   14350:	018360b4 	strheq	r6, [r3, r4]
   14354:	e8bd8070 	pop	{r4, r5, r6, pc}
   14358:	e92d4038 	push	{r3, r4, r5, lr}
   1435c:	e2504000 	subs	r4, r0, #0
   14360:	1a000005 	bne	0x1437c
   14364:	e3040784 	movw	r0, #18308	; 0x4784
   14368:	e3400001 	movt	r0, #1
   1436c:	e3041d20 	movw	r1, #19744	; 0x4d20
   14370:	e3401001 	movt	r1, #1
   14374:	e3a0206f 	mov	r2, #111	; 0x6f
   14378:	ebfff2ae 	bl	0x10e38
   1437c:	ebfffc3e 	bl	0x1347c
   14380:	f57ff04f 	dsb	sy
   14384:	e5941000 	ldr	r1, [r4]
   14388:	e2840004 	add	r0, r4, #4
   1438c:	e2811103 	add	r1, r1, #-1073741824	; 0xc0000000
   14390:	ebffff67 	bl	0x14134
   14394:	e1a05000 	mov	r5, r0
   14398:	ebfffc15 	bl	0x133f4
   1439c:	e3550000 	cmp	r5, #0
   143a0:	1a000004 	bne	0x143b8
   143a4:	e5943000 	ldr	r3, [r4]
   143a8:	e5930020 	ldr	r0, [r3, #32]
   143ac:	e2900000 	adds	r0, r0, #0
   143b0:	13a00001 	movne	r0, #1
   143b4:	e8bd8038 	pop	{r3, r4, r5, pc}
   143b8:	e3a00000 	mov	r0, #0
   143bc:	e8bd8038 	pop	{r3, r4, r5, pc}
   143c0:	e92d4010 	push	{r4, lr}
   143c4:	e2504000 	subs	r4, r0, #0
   143c8:	1a000005 	bne	0x143e4
   143cc:	e3040784 	movw	r0, #18308	; 0x4784
   143d0:	e3400001 	movt	r0, #1
   143d4:	e3041d20 	movw	r1, #19744	; 0x4d20
   143d8:	e3401001 	movt	r1, #1
   143dc:	e3a02085 	mov	r2, #133	; 0x85
   143e0:	ebfff294 	bl	0x10e38
   143e4:	e5943000 	ldr	r3, [r4]
   143e8:	e5930000 	ldr	r0, [r3]
   143ec:	e8bd8010 	pop	{r4, pc}
   143f0:	e92d4010 	push	{r4, lr}
   143f4:	e2504000 	subs	r4, r0, #0
   143f8:	1a000005 	bne	0x14414
   143fc:	e3040784 	movw	r0, #18308	; 0x4784
   14400:	e3400001 	movt	r0, #1
   14404:	e3041d20 	movw	r1, #19744	; 0x4d20
   14408:	e3401001 	movt	r1, #1
   1440c:	e3a0208b 	mov	r2, #139	; 0x8b
   14410:	ebfff288 	bl	0x10e38
   14414:	e5943000 	ldr	r3, [r4]
   14418:	e5930004 	ldr	r0, [r3, #4]
   1441c:	e8bd8010 	pop	{r4, pc}
   14420:	e92d4010 	push	{r4, lr}
   14424:	e2504000 	subs	r4, r0, #0
   14428:	1a000005 	bne	0x14444
   1442c:	e3040784 	movw	r0, #18308	; 0x4784
   14430:	e3400001 	movt	r0, #1
   14434:	e3041d20 	movw	r1, #19744	; 0x4d20
   14438:	e3401001 	movt	r1, #1
   1443c:	e3a02091 	mov	r2, #145	; 0x91
   14440:	ebfff27c 	bl	0x10e38
   14444:	e5943000 	ldr	r3, [r4]
   14448:	e5930010 	ldr	r0, [r3, #16]
   1444c:	e8bd8010 	pop	{r4, pc}
   14450:	e92d4010 	push	{r4, lr}
   14454:	e2504000 	subs	r4, r0, #0
   14458:	1a000005 	bne	0x14474
   1445c:	e3040784 	movw	r0, #18308	; 0x4784
   14460:	e3400001 	movt	r0, #1
   14464:	e3041d20 	movw	r1, #19744	; 0x4d20
   14468:	e3401001 	movt	r1, #1
   1446c:	e3a02097 	mov	r2, #151	; 0x97
   14470:	ebfff270 	bl	0x10e38
   14474:	e5943000 	ldr	r3, [r4]
   14478:	e5930014 	ldr	r0, [r3, #20]
   1447c:	e8bd8010 	pop	{r4, pc}
   14480:	e92d4010 	push	{r4, lr}
   14484:	e2504000 	subs	r4, r0, #0
   14488:	1a000005 	bne	0x144a4
   1448c:	e3040784 	movw	r0, #18308	; 0x4784
   14490:	e3400001 	movt	r0, #1
   14494:	e3041d20 	movw	r1, #19744	; 0x4d20
   14498:	e3401001 	movt	r1, #1
   1449c:	e3a0209d 	mov	r2, #157	; 0x9d
   144a0:	ebfff264 	bl	0x10e38
   144a4:	e5943000 	ldr	r3, [r4]
   144a8:	e5930020 	ldr	r0, [r3, #32]
   144ac:	e3c00103 	bic	r0, r0, #-1073741824	; 0xc0000000
   144b0:	e8bd8010 	pop	{r4, pc}
   144b4:	e92d4010 	push	{r4, lr}
   144b8:	e2504000 	subs	r4, r0, #0
   144bc:	1a000005 	bne	0x144d8
   144c0:	e3040784 	movw	r0, #18308	; 0x4784
   144c4:	e3400001 	movt	r0, #1
   144c8:	e3041d20 	movw	r1, #19744	; 0x4d20
   144cc:	e3401001 	movt	r1, #1
   144d0:	e3a020a3 	mov	r2, #163	; 0xa3
   144d4:	ebfff257 	bl	0x10e38
   144d8:	e5943000 	ldr	r3, [r4]
   144dc:	e5930024 	ldr	r0, [r3, #36]	; 0x24
   144e0:	e8bd8010 	pop	{r4, pc}
   144e4:	e92d4010 	push	{r4, lr}
   144e8:	e2504000 	subs	r4, r0, #0
   144ec:	1a000005 	bne	0x14508
   144f0:	e3040784 	movw	r0, #18308	; 0x4784
   144f4:	e3400001 	movt	r0, #1
   144f8:	e3051258 	movw	r1, #21080	; 0x5258
   144fc:	e3401001 	movt	r1, #1
   14500:	e3a02020 	mov	r2, #32
   14504:	ebfff24b 	bl	0x10e38
   14508:	e3a03008 	mov	r3, #8
   1450c:	e5843000 	str	r3, [r4]
   14510:	e8bd8010 	pop	{r4, pc}
   14514:	e12fff1e 	bx	lr
   14518:	e92d4010 	push	{r4, lr}
   1451c:	e2504000 	subs	r4, r0, #0
   14520:	1a000005 	bne	0x1453c
   14524:	e3040784 	movw	r0, #18308	; 0x4784
   14528:	e3400001 	movt	r0, #1
   1452c:	e3051258 	movw	r1, #21080	; 0x5258
   14530:	e3401001 	movt	r1, #1
   14534:	e3a0202f 	mov	r2, #47	; 0x2f
   14538:	ebfff23e 	bl	0x10e38
   1453c:	e5940000 	ldr	r0, [r4]
   14540:	e8bd8010 	pop	{r4, pc}
   14544:	e3500000 	cmp	r0, #0
   14548:	1a000008 	bne	0x14570
   1454c:	e92d4008 	push	{r3, lr}
   14550:	e3040784 	movw	r0, #18308	; 0x4784
   14554:	e3400001 	movt	r0, #1
   14558:	e3051258 	movw	r1, #21080	; 0x5258
   1455c:	e3401001 	movt	r1, #1
   14560:	e3a02035 	mov	r2, #53	; 0x35
   14564:	ebfff233 	bl	0x10e38
   14568:	e3a00010 	mov	r0, #16
   1456c:	e8bd8008 	pop	{r3, pc}
   14570:	e3a00010 	mov	r0, #16
   14574:	e12fff1e 	bx	lr
   14578:	e3500000 	cmp	r0, #0
   1457c:	1a000008 	bne	0x145a4
   14580:	e92d4008 	push	{r3, lr}
   14584:	e3040784 	movw	r0, #18308	; 0x4784
   14588:	e3400001 	movt	r0, #1
   1458c:	e3051258 	movw	r1, #21080	; 0x5258
   14590:	e3401001 	movt	r1, #1
   14594:	e3a02040 	mov	r2, #64	; 0x40
   14598:	ebfff226 	bl	0x10e38
   1459c:	e3a0000e 	mov	r0, #14
   145a0:	e8bd8008 	pop	{r3, pc}
   145a4:	e3a0000e 	mov	r0, #14
   145a8:	e12fff1e 	bx	lr
   145ac:	e92d40f8 	push	{r3, r4, r5, r6, r7, lr}
   145b0:	e1a04001 	mov	r4, r1
   145b4:	e1a05002 	mov	r5, r2
   145b8:	e1a06003 	mov	r6, r3
   145bc:	e2507000 	subs	r7, r0, #0
   145c0:	1a000005 	bne	0x145dc
   145c4:	e3040784 	movw	r0, #18308	; 0x4784
   145c8:	e3400001 	movt	r0, #1
   145cc:	e3051258 	movw	r1, #21080	; 0x5258
   145d0:	e3401001 	movt	r1, #1
   145d4:	e3a0204b 	mov	r2, #75	; 0x4b
   145d8:	ebfff216 	bl	0x10e38
   145dc:	e2443021 	sub	r3, r4, #33	; 0x21
   145e0:	e6ef3073 	uxtb	r3, r3
   145e4:	e353005d 	cmp	r3, #93	; 0x5d
   145e8:	8a00001d 	bhi	0x14664
   145ec:	e2444021 	sub	r4, r4, #33	; 0x21
   145f0:	e354005d 	cmp	r4, #93	; 0x5d
   145f4:	9a000005 	bls	0x14610
   145f8:	e3050268 	movw	r0, #21096	; 0x5268
   145fc:	e3400001 	movt	r0, #1
   14600:	e3051258 	movw	r1, #21080	; 0x5258
   14604:	e3401001 	movt	r1, #1
   14608:	e3a02054 	mov	r2, #84	; 0x54
   1460c:	ebfff209 	bl	0x10e38
   14610:	e5973000 	ldr	r3, [r7]
   14614:	e1530005 	cmp	r3, r5
   14618:	8a000005 	bhi	0x14634
   1461c:	e305027c 	movw	r0, #21116	; 0x527c
   14620:	e3400001 	movt	r0, #1
   14624:	e3051258 	movw	r1, #21080	; 0x5258
   14628:	e3401001 	movt	r1, #1
   1462c:	e3a02056 	mov	r2, #86	; 0x56
   14630:	ebfff200 	bl	0x10e38
   14634:	e356000d 	cmp	r6, #13
   14638:	8a00000b 	bhi	0x1466c
   1463c:	e3043d34 	movw	r3, #19764	; 0x4d34
   14640:	e3403001 	movt	r3, #1
   14644:	e3a0200e 	mov	r2, #14
   14648:	e0246492 	mla	r4, r2, r4, r6
   1464c:	e7d33004 	ldrb	r3, [r3, r4]
   14650:	e3a02080 	mov	r2, #128	; 0x80
   14654:	e0133552 	ands	r3, r3, r2, asr r5
   14658:	13a00001 	movne	r0, #1
   1465c:	03a00000 	moveq	r0, #0
   14660:	e8bd80f8 	pop	{r3, r4, r5, r6, r7, pc}
   14664:	e3a00000 	mov	r0, #0
   14668:	e8bd80f8 	pop	{r3, r4, r5, r6, r7, pc}
   1466c:	e3a00000 	mov	r0, #0
   14670:	e8bd80f8 	pop	{r3, r4, r5, r6, r7, pc}
   14674:	00000000 	andeq	r0, r0, r0
   14678:	e2500001 	subs	r0, r0, #1
   1467c:	8afffffd 	bhi	0x14678
   14680:	e1a0f00e 	mov	pc, lr
   14684:	e92d4008 	push	{r3, lr}
   14688:	e3a02000 	mov	r2, #0
   1468c:	eb000007 	bl	0x146b0
   14690:	e8bd8008 	pop	{r3, pc}
   14694:	e52de004 	push	{lr}		; (str lr, [sp, #-4]!)
   14698:	e24dd00c 	sub	sp, sp, #12
   1469c:	e28d2004 	add	r2, sp, #4
   146a0:	eb000002 	bl	0x146b0
   146a4:	e59d1004 	ldr	r1, [sp, #4]
   146a8:	e28dd00c 	add	sp, sp, #12
   146ac:	e49df004 	pop	{pc}		; (ldr pc, [sp], #4)
   146b0:	e92d40f8 	push	{r3, r4, r5, r6, r7, lr}
   146b4:	e1a04000 	mov	r4, r0
   146b8:	e1a05002 	mov	r5, r2
   146bc:	e2516000 	subs	r6, r1, #0
   146c0:	1a000008 	bne	0x146e8
   146c4:	e3040818 	movw	r0, #18456	; 0x4818
   146c8:	e3400001 	movt	r0, #1
   146cc:	e3051298 	movw	r1, #21144	; 0x5298
   146d0:	e3401001 	movt	r1, #1
   146d4:	e3a0201f 	mov	r2, #31
   146d8:	ebfff1d6 	bl	0x10e38
   146dc:	ebfff0d1 	bl	0x10a28
   146e0:	e3a01000 	mov	r1, #0
   146e4:	ebfff078 	bl	0x108cc
   146e8:	e1a02006 	mov	r2, r6
   146ec:	e3a03000 	mov	r3, #0
   146f0:	e1a06004 	mov	r6, r4
   146f4:	e3a07000 	mov	r7, #0
   146f8:	e1530007 	cmp	r3, r7
   146fc:	01520004 	cmpeq	r2, r4
   14700:	2a00000c 	bcs	0x14738
   14704:	e3a0c001 	mov	ip, #1
   14708:	e0920002 	adds	r0, r2, r2
   1470c:	e0a31003 	adc	r1, r3, r3
   14710:	e1a02000 	mov	r2, r0
   14714:	e1a03001 	mov	r3, r1
   14718:	e28cc001 	add	ip, ip, #1
   1471c:	e1510007 	cmp	r1, r7
   14720:	01500006 	cmpeq	r0, r6
   14724:	3afffff7 	bcc	0x14708
   14728:	e24c1001 	sub	r1, ip, #1
   1472c:	e35c0000 	cmp	ip, #0
   14730:	1a000001 	bne	0x1473c
   14734:	ea00000e 	b	0x14774
   14738:	e3a01000 	mov	r1, #0
   1473c:	e3a00000 	mov	r0, #0
   14740:	e1a00080 	lsl	r0, r0, #1
   14744:	e1a06004 	mov	r6, r4
   14748:	e3a07000 	mov	r7, #0
   1474c:	e1570003 	cmp	r7, r3
   14750:	01540002 	cmpeq	r4, r2
   14754:	23800001 	orrcs	r0, r0, #1
   14758:	20624004 	rsbcs	r4, r2, r4
   1475c:	e1b030a3 	lsrs	r3, r3, #1
   14760:	e1a02062 	rrx	r2, r2
   14764:	e2411001 	sub	r1, r1, #1
   14768:	e3710001 	cmn	r1, #1
   1476c:	1afffff3 	bne	0x14740
   14770:	ea000000 	b	0x14778
   14774:	e3a00000 	mov	r0, #0
   14778:	e3550000 	cmp	r5, #0
   1477c:	15854000 	strne	r4, [r5]
   14780:	e8bd80f8 	pop	{r3, r4, r5, r6, r7, pc}
   14784:	69685470 	stmdbvs	r8!, {r4, r5, r6, sl, ip, lr}^
   14788:	3d212073 	stccc	0, cr2, [r1, #-460]!	; 0xfffffe34
   1478c:	00003020 	andeq	r3, r0, r0, lsr #32
   14790:	6f6d656d 	svcvs	0x006d656d
   14794:	632e7972 	teqvs	lr, #1867776	; 0x1c8000
   14798:	00000000 	andeq	r0, r0, r0
   1479c:	69685470 	stmdbvs	r8!, {r4, r5, r6, sl, ip, lr}^
   147a0:	6d3e2d73 	ldcvs	13, cr2, [lr, #-460]!	; 0xfffffe34
   147a4:	6e45625f 	mcrvs	2, 2, r6, cr5, cr15, {2}
   147a8:	656c6261 	strbvs	r6, [ip, #-609]!	; 0x261
   147ac:	00554d4d 	subseq	r4, r5, sp, asr #26
   147b0:	546e2821 	strbtpl	r2, [lr], #-2081	; 0x821
   147b4:	7954424c 	ldmdbvc	r4, {r2, r3, r6, r9, lr}^
   147b8:	26206570 			; <UNDEFINED> instruction: 0x26206570
   147bc:	4d524120 	ldfmie	f4, [r2, #-128]	; 0xffffff80
   147c0:	424c545f 	submi	r5, ip, #1593835520	; 0x5f000000
   147c4:	5059545f 	subspl	r5, r9, pc, asr r4
   147c8:	45535f45 	ldrbmi	r5, [r3, #-3909]	; 0xf45
   147cc:	41524150 	cmpmi	r2, r0, asr r1
   147d0:	545f4554 	ldrbpl	r4, [pc], #-1364	; 0x147d8
   147d4:	2953424c 	ldmdbcs	r3, {r2, r3, r6, r9, lr}^
   147d8:	00000000 	andeq	r0, r0, r0
   147dc:	69685470 	stmdbvs	r8!, {r4, r5, r6, sl, ip, lr}^
   147e0:	6d3e2d73 	ldcvs	13, cr2, [lr, #-460]!	; 0xfffffe34
   147e4:	6150705f 	cmpvs	r0, pc, asr r0
   147e8:	61546567 	cmpvs	r4, r7, ror #10
   147ec:	30656c62 	rsbcc	r6, r5, r2, ror #24
   147f0:	61666544 	cmnvs	r6, r4, asr #10
   147f4:	20746c75 	rsbscs	r6, r4, r5, ror ip
   147f8:	30203d21 	eorcc	r3, r0, r1, lsr #26
   147fc:	00000000 	andeq	r0, r0, r0
   14800:	69685470 	stmdbvs	r8!, {r4, r5, r6, sl, ip, lr}^
   14804:	6d3e2d73 	ldcvs	13, cr2, [lr, #-460]!	; 0xfffffe34
   14808:	6150705f 	cmpvs	r0, pc, asr r0
   1480c:	61546567 	cmpvs	r4, r7, ror #10
   14810:	31656c62 	cmncc	r5, r2, ror #24
   14814:	203d2120 	eorscs	r2, sp, r0, lsr #2
   14818:	00000030 	andeq	r0, r0, r0, lsr r0
   1481c:	4d676154 	stfmie	f6, [r7, #-336]!	; 0xfffffeb0
   14820:	726f6d65 	rsbvc	r6, pc, #6464	; 0x1940
   14824:	426e2e79 	rsbmi	r2, lr, #1936	; 0x790
   14828:	41657361 	cmnmi	r5, r1, ror #6
   1482c:	65726464 	ldrbvs	r6, [r2, #-1124]!	; 0x464
   14830:	3d207373 	stccc	3, cr7, [r0, #-460]!	; 0xfffffe34
   14834:	0030203d 	eorseq	r2, r0, sp, lsr r0
   14838:	65676170 	strbvs	r6, [r7, #-368]!	; 0x170
   1483c:	6c626174 	stfvse	f6, [r2], #-464	; 0xfffffe30
   14840:	00632e65 	rsbeq	r2, r3, r5, ror #28
   14844:	69685470 	stmdbvs	r8!, {r4, r5, r6, sl, ip, lr}^
   14848:	6d3e2d73 	ldcvs	13, cr2, [lr, #-460]!	; 0xfffffe34
   1484c:	6154705f 	cmpvs	r4, pc, asr r0
   14850:	20656c62 	rsbcs	r6, r5, r2, ror #24
   14854:	30203d21 	eorcc	r3, r0, r1, lsr #26
   14858:	00000000 	andeq	r0, r0, r0
   1485c:	33752828 	cmncc	r5, #40, 16	; 0x280000
   14860:	70202932 	eorvc	r2, r0, r2, lsr r9
   14864:	73696854 	cmnvc	r9, #84, 16	; 0x540000
   14868:	5f6d3e2d 	svcpl	0x006d3e2d
   1486c:	62615470 	rsbvs	r5, r1, #112, 8	; 0x70000000
   14870:	2620656c 	strtcs	r6, [r0], -ip, ror #10
   14874:	46783020 	ldrbtmi	r3, [r8], -r0, lsr #32
   14878:	20294646 	eorcs	r4, r9, r6, asr #12
   1487c:	30203d3d 	eorcc	r3, r0, sp, lsr sp
   14880:	00000000 	andeq	r0, r0, r0
   14884:	65637865 	strbvs	r7, [r3, #-2149]!	; 0x865
   14888:	00007470 	andeq	r7, r0, r0, ror r4
   1488c:	0001492c 	andeq	r4, r1, ip, lsr #18
   14890:	00014940 	andeq	r4, r1, r0, asr #18
   14894:	00014958 	andeq	r4, r1, r8, asr r9
   14898:	00014968 	andeq	r4, r1, r8, ror #18
   1489c:	65637865 	strbvs	r7, [r3, #-2149]!	; 0x865
   148a0:	6f697470 	svcvs	0x00697470
   148a4:	6e61686e 	cdpvs	8, 6, cr6, cr1, cr14, {3}
   148a8:	72656c64 	rsbvc	r6, r5, #100, 24	; 0x6400
   148ac:	0000632e 	andeq	r6, r0, lr, lsr #6
   148b0:	54705f73 	ldrbtpl	r5, [r0], #-3955	; 0xf73
   148b4:	20736968 	rsbscs	r6, r3, r8, ror #18
   148b8:	30203d3d 	eorcc	r3, r0, sp, lsr sp
   148bc:	00000000 	andeq	r0, r0, r0
   148c0:	65637845 	strbvs	r7, [r3, #-2117]!	; 0x845
   148c4:	6f697470 	svcvs	0x00697470
   148c8:	25203a6e 	strcs	r3, [r0, #-2670]!	; 0xa6e
   148cc:	00000073 	andeq	r0, r0, r3, ror r0
   148d0:	61724670 	cmnvs	r2, r0, ror r6
   148d4:	2120656d 	teqcs	r0, sp, ror #10
   148d8:	0030203d 	eorseq	r2, r0, sp, lsr r0
   148dc:	28207325 	stmdacs	r0!, {r0, r2, r5, r8, r9, ip, sp, lr}
   148e0:	30204350 	eorcc	r4, r0, r0, asr r3
   148e4:	2c582578 	cfldr64cs	mvdx2, [r8], {120}	; 0x78
   148e8:	52534620 	subspl	r4, r3, #32, 12	; 0x2000000
   148ec:	25783020 	ldrbcs	r3, [r8, #-32]!
   148f0:	46202c58 			; <UNDEFINED> instruction: 0x46202c58
   148f4:	30205241 	eorcc	r5, r0, r1, asr #4
   148f8:	2c582578 	cfldr64cs	mvdx2, [r8], {120}	; 0x78
   148fc:	20505320 	subscs	r5, r0, r0, lsr #6
   14900:	58257830 	stmdapl	r5!, {r4, r5, fp, ip, sp, lr}
   14904:	524c202c 	subpl	r2, ip, #44	; 0x2c
   14908:	25783020 	ldrbcs	r3, [r8, #-32]!
   1490c:	50202c58 	eorpl	r2, r0, r8, asr ip
   14910:	30205253 	eorcc	r5, r0, r3, asr r2
   14914:	29582578 	ldmdbcs	r8, {r3, r4, r5, r6, r8, sl, sp}^
   14918:	00000000 	andeq	r0, r0, r0
   1491c:	54705f73 	ldrbtpl	r5, [r0], #-3955	; 0xf73
   14920:	20736968 	rsbscs	r6, r3, r8, ror #18
   14924:	30203d21 	eorcc	r3, r0, r1, lsr #26
   14928:	00000000 	andeq	r0, r0, r0
   1492c:	69766944 	ldmdbvs	r6!, {r2, r6, r8, fp, sp, lr}^
   14930:	6e6f6973 	mcrvs	9, 3, r6, cr15, cr3, {3}
   14934:	20796220 	rsbscs	r6, r9, r0, lsr #4
   14938:	6f72657a 	svcvs	0x0072657a
   1493c:	00000000 	andeq	r0, r0, r0
   14940:	65646e55 	strbvs	r6, [r4, #-3669]!	; 0xe55
   14944:	656e6966 	strbvs	r6, [lr, #-2406]!	; 0x966
   14948:	6e692064 	cdpvs	0, 6, cr2, cr9, cr4, {3}
   1494c:	75727473 	ldrbvc	r7, [r2, #-1139]!	; 0x473
   14950:	6f697463 	svcvs	0x00697463
   14954:	0000006e 	andeq	r0, r0, lr, rrx
   14958:	66657250 			; <UNDEFINED> instruction: 0x66657250
   1495c:	68637465 	stmdavs	r3!, {r0, r2, r5, r6, sl, ip, sp, lr}^
   14960:	6f626120 	svcvs	0x00626120
   14964:	00007472 	andeq	r7, r0, r2, ror r4
   14968:	61746144 	cmnvs	r4, r4, asr #2
   1496c:	6f626120 	svcvs	0x00626120
   14970:	00007472 	andeq	r7, r0, r2, ror r4
   14974:	4e705f73 	mrcmi	15, 3, r5, cr0, cr3, {3}
   14978:	42747865 	rsbsmi	r7, r4, #6619136	; 0x650000
   1497c:	6b636f6c 	blvs	0x18f0734
   14980:	203d2120 	eorscs	r2, sp, r0, lsr #2
   14984:	00000030 	andeq	r0, r0, r0, lsr r0
   14988:	6f6c6c61 	svcvs	0x006c6c61
   1498c:	00632e63 	rsbeq	r2, r3, r3, ror #28
   14990:	6f6c4270 	svcvs	0x006c4270
   14994:	65486b63 	strbvs	r6, [r8, #-2915]	; 0xb63
   14998:	72656461 	rsbvc	r6, r5, #1627389952	; 0x61000000
   1499c:	4d6e3e2d 	stclmi	14, cr3, [lr, #-180]!	; 0xffffff4c
   149a0:	63696761 	cmnvs	r9, #25427968	; 0x1840000
   149a4:	203d3d20 	eorscs	r3, sp, r0, lsr #26
   149a8:	434f4c42 	movtmi	r4, #64578	; 0xfc42
   149ac:	414d5f4b 	cmpmi	sp, fp, asr #30
   149b0:	00434947 	subeq	r4, r3, r7, asr #18
   149b4:	6e752828 	cdpvs	8, 7, cr2, cr5, cr8, {1}
   149b8:	6e676973 	mcrvs	9, 3, r6, cr7, cr3, {3}
   149bc:	6c206465 	cfstrsvs	mvf6, [r0], #-404	; 0xfffffe6c
   149c0:	29676e6f 	stmdbcs	r7!, {r0, r1, r2, r3, r5, r6, r9, sl, fp, sp, lr}^
   149c4:	65527020 	ldrbvs	r7, [r2, #-32]
   149c8:	746c7573 	strbtvc	r7, [ip], #-1395	; 0x573
   149cc:	41202620 	teqmi	r0, r0, lsr #12
   149d0:	4e47494c 	cdpmi	9, 4, cr4, cr7, cr12, {2}
   149d4:	53414d5f 	movtpl	r4, #7519	; 0x1d5f
   149d8:	3d20294b 	stccc	9, cr2, [r0, #-300]!	; 0xfffffed4
   149dc:	0030203d 	eorseq	r2, r0, sp, lsr r0
   149e0:	6f6c4270 	svcvs	0x006c4270
   149e4:	21206b63 	teqcs	r0, r3, ror #22
   149e8:	0030203d 	eorseq	r2, r0, sp, lsr r0
   149ec:	4e705f73 	mrcmi	15, 3, r5, cr0, cr3, {3}
   149f0:	50747865 	rsbspl	r7, r4, r5, ror #16
   149f4:	20656761 	rsbcs	r6, r5, r1, ror #14
   149f8:	30203d21 	eorcc	r3, r0, r1, lsr #26
   149fc:	00000000 	andeq	r0, r0, r0
   14a00:	65724670 	ldrbvs	r4, [r2, #-1648]!	; 0x670
   14a04:	67615065 	strbvs	r5, [r1, -r5, rrx]!
   14a08:	6e3e2d65 	cdpvs	13, 3, cr2, cr14, cr5, {3}
   14a0c:	6967614d 	stmdbvs	r7!, {r0, r2, r3, r6, r8, sp, lr}^
   14a10:	3d3d2063 	ldccc	0, cr2, [sp, #-396]!	; 0xfffffe74
   14a14:	45524620 	ldrbmi	r4, [r2, #-1568]	; 0x620
   14a18:	47415045 	strbmi	r5, [r1, -r5, asr #32]
   14a1c:	414d5f45 	cmpmi	sp, r5, asr #30
   14a20:	00434947 	subeq	r4, r3, r7, asr #18
   14a24:	67615070 			; <UNDEFINED> instruction: 0x67615070
   14a28:	3d212065 	stccc	0, cr2, [r1, #-404]!	; 0xfffffe6c
   14a2c:	00003020 	andeq	r3, r0, r0, lsr #32
   14a30:	25287325 	strcs	r7, [r8, #-805]!	; 0x325
   14a34:	00002975 	andeq	r2, r0, r5, ror r9
   14a38:	65737361 	ldrbvs	r7, [r3, #-865]!	; 0x361
   14a3c:	6f697472 	svcvs	0x00697472
   14a40:	6166206e 	cmnvs	r6, lr, rrx
   14a44:	64656c69 	strbtvs	r6, [r5], #-3177	; 0xc69
   14a48:	7325203a 	teqvc	r5, #58	; 0x3a
   14a4c:	00000000 	andeq	r0, r0, r0
   14a50:	706d6362 	rsbvc	r6, sp, r2, ror #6
   14a54:	65706f72 	ldrbvs	r6, [r0, #-3954]!	; 0xf72
   14a58:	74797472 	ldrbtvc	r7, [r9], #-1138	; 0x472
   14a5c:	2e736761 	cdpcs	7, 7, cr6, cr3, cr1, {3}
   14a60:	00000063 	andeq	r0, r0, r3, rrx
   14a64:	67615470 			; <UNDEFINED> instruction: 0x67615470
   14a68:	203d2120 	eorscs	r2, sp, r0, lsr #2
   14a6c:	00000030 	andeq	r0, r0, r0, lsr r0
   14a70:	6761546e 	strbvs	r5, [r1, -lr, ror #8]!
   14a74:	657a6953 	ldrbvs	r6, [sl, #-2387]!	; 0x953
   14a78:	203d3e20 	eorscs	r3, sp, r0, lsr #28
   14a7c:	657a6973 	ldrbvs	r6, [sl, #-2419]!	; 0x973
   14a80:	2820666f 	stmdacs	r0!, {r0, r1, r2, r3, r5, r6, r9, sl, sp, lr}
   14a84:	6f725054 	svcvs	0x00725054
   14a88:	74726570 	ldrbtvc	r6, [r2], #-1392	; 0x570
   14a8c:	67615479 			; <UNDEFINED> instruction: 0x67615479
   14a90:	706d6953 	rsbvc	r6, sp, r3, asr r9
   14a94:	0029656c 	eoreq	r6, r9, ip, ror #10
   14a98:	75426e28 	strbvc	r6, [r2, #-3624]	; 0xe28
   14a9c:	72656666 	rsbvc	r6, r5, #106954752	; 0x6600000
   14aa0:	657a6953 	ldrbvs	r6, [sl, #-2387]!	; 0x953
   14aa4:	33202620 	teqcc	r0, #32, 12	; 0x2000000
   14aa8:	3d3d2029 	ldccc	0, cr2, [sp, #-164]!	; 0xffffff5c
   14aac:	00003020 	andeq	r3, r0, r0, lsr #32
   14ab0:	75626564 	strbvc	r6, [r2, #-1380]!	; 0x564
   14ab4:	00000067 	andeq	r0, r0, r7, rrx
   14ab8:	706d7544 	rsbvc	r7, sp, r4, asr #10
   14abc:	20676e69 	rsbcs	r6, r7, r9, ror #28
   14ac0:	58257830 	stmdapl	r5!, {r4, r5, fp, ip, sp, lr}
   14ac4:	74796220 	ldrbtvc	r6, [r9], #-544	; 0x220
   14ac8:	73207365 	teqvc	r0, #-1811939327	; 0x94000001
   14acc:	74726174 	ldrbtvc	r6, [r2], #-372	; 0x174
   14ad0:	20676e69 	rsbcs	r6, r7, r9, ror #28
   14ad4:	30207461 	eorcc	r7, r0, r1, ror #8
   14ad8:	00582578 	subseq	r2, r8, r8, ror r5
   14adc:	58343025 	ldmdapl	r4!, {r0, r2, r5, ip, sp}
   14ae0:	3025203a 	eorcc	r2, r5, sl, lsr r0
   14ae4:	25205832 	strcs	r5, [r0, #-2098]!	; 0x832
   14ae8:	20583230 	subscs	r3, r8, r0, lsr r2
   14aec:	58323025 	ldmdapl	r2!, {r0, r2, r5, ip, sp}
   14af0:	32302520 	eorscc	r2, r0, #32, 10	; 0x8000000
   14af4:	30252058 	eorcc	r2, r5, r8, asr r0
   14af8:	25205832 	strcs	r5, [r0, #-2098]!	; 0x832
   14afc:	20583230 	subscs	r3, r8, r0, lsr r2
   14b00:	58323025 	ldmdapl	r2!, {r0, r2, r5, ip, sp}
   14b04:	32302520 	eorscc	r2, r0, #32, 10	; 0x8000000
   14b08:	30252d58 	eorcc	r2, r5, r8, asr sp
   14b0c:	25205832 	strcs	r5, [r0, #-2098]!	; 0x832
   14b10:	20583230 	subscs	r3, r8, r0, lsr r2
   14b14:	58323025 	ldmdapl	r2!, {r0, r2, r5, ip, sp}
   14b18:	32302520 	eorscc	r2, r0, #32, 10	; 0x8000000
   14b1c:	30252058 	eorcc	r2, r5, r8, asr r0
   14b20:	25205832 	strcs	r5, [r0, #-2098]!	; 0x832
   14b24:	20583230 	subscs	r3, r8, r0, lsr r2
   14b28:	58323025 	ldmdapl	r2!, {r0, r2, r5, ip, sp}
   14b2c:	32302520 	eorscc	r2, r0, #32, 10	; 0x8000000
   14b30:	00000058 	andeq	r0, r0, r8, asr r0
   14b34:	63617473 	cmnvs	r1, #1929379840	; 0x73000000
   14b38:	75255b6b 	strvc	r5, [r5, #-2923]!	; 0xb6b
   14b3c:	7369205d 	cmnvc	r9, #93	; 0x5d
   14b40:	25783020 	ldrbcs	r3, [r8, #-32]!
   14b44:	00000058 	andeq	r0, r0, r8, asr r0
   14b48:	65746e69 	ldrbvs	r6, [r4, #-3689]!	; 0xe69
   14b4c:	70757272 	rsbsvc	r7, r5, r2, ror r2
   14b50:	00632e74 	rsbeq	r2, r3, r4, ror lr
   14b54:	5152496e 	cmppl	r2, lr, ror #18
   14b58:	49203c20 	stmdbmi	r0!, {r5, sl, fp, ip, sp}
   14b5c:	4c5f5152 	ldfmie	f5, [pc], {82}	; 0x52
   14b60:	53454e49 	movtpl	r4, #24137	; 0x5e49
   14b64:	00000000 	andeq	r0, r0, r0
   14b68:	69685470 	stmdbvs	r8!, {r4, r5, r6, sl, ip, lr}^
   14b6c:	6d3e2d73 	ldcvs	13, cr2, [lr, #-460]!	; 0xfffffe34
   14b70:	4970615f 	ldmdbmi	r0!, {r0, r1, r2, r3, r4, r6, r8, sp, lr}^
   14b74:	61485152 	cmpvs	r8, r2, asr r1
   14b78:	656c646e 	strbvs	r6, [ip, #-1134]!	; 0x46e
   14b7c:	496e5b72 	stmdbmi	lr!, {r1, r4, r5, r6, r8, r9, fp, ip, lr}^
   14b80:	205d5152 	subscs	r5, sp, r2, asr r1
   14b84:	30203d3d 	eorcc	r3, r0, sp, lsr sp
   14b88:	00000000 	andeq	r0, r0, r0
   14b8c:	69685470 	stmdbvs	r8!, {r4, r5, r6, sl, ip, lr}^
   14b90:	6d3e2d73 	ldcvs	13, cr2, [lr, #-460]!	; 0xfffffe34
   14b94:	4970615f 	ldmdbmi	r0!, {r0, r1, r2, r3, r4, r6, r8, sp, lr}^
   14b98:	61485152 	cmpvs	r8, r2, asr r1
   14b9c:	656c646e 	strbvs	r6, [ip, #-1134]!	; 0x46e
   14ba0:	496e5b72 	stmdbmi	lr!, {r1, r4, r5, r6, r8, r9, fp, ip, lr}^
   14ba4:	205d5152 	subscs	r5, sp, r2, asr r1
   14ba8:	30203d21 	eorcc	r3, r0, r1, lsr #26
   14bac:	00000000 	andeq	r0, r0, r0
   14bb0:	6d315b1b 	fldmdbxvs	r1!, {d5-d17}	;@ Deprecated
   14bb4:	00000000 	andeq	r0, r0, r0
   14bb8:	00000020 	andeq	r0, r0, r0, lsr #32
   14bbc:	0000203a 	andeq	r2, r0, sl, lsr r0
   14bc0:	6d305b1b 	fldmdbxvs	r0!, {d5-d17}	;@ Deprecated
   14bc4:	00000000 	andeq	r0, r0, r0
   14bc8:	0000000a 	andeq	r0, r0, sl
   14bcc:	67676f6c 	strbvs	r6, [r7, -ip, ror #30]!
   14bd0:	00007265 	andeq	r7, r0, r5, ror #4
   14bd4:	67676f4c 	strbvs	r6, [r7, -ip, asr #30]!
   14bd8:	20676e69 	rsbcs	r6, r7, r9, ror #28
   14bdc:	72617473 	rsbvc	r7, r1, #1929379840	; 0x73000000
   14be0:	00646574 	rsbeq	r6, r4, r4, ror r5
   14be4:	2f7c5c2d 	svccs	0x007c5c2d
   14be8:	00000000 	andeq	r0, r0, r0
   14bec:	69727473 	ldmdbvs	r2!, {r0, r1, r4, r5, r6, sl, ip, sp, lr}^
   14bf0:	632e676e 	teqvs	lr, #28835840	; 0x1b80000
   14bf4:	00000000 	andeq	r0, r0, r0
   14bf8:	436e5f73 	cmnmi	lr, #460	; 0x1cc
   14bfc:	69746972 	ldmdbvs	r4!, {r1, r4, r5, r6, r8, fp, sp, lr}^
   14c00:	4c6c6163 	stfmie	f6, [ip], #-396	; 0xfffffe74
   14c04:	6c657665 	stclvs	6, cr7, [r5], #-404	; 0xfffffe6c
   14c08:	30203e20 	eorcc	r3, r0, r0, lsr #28
   14c0c:	00000000 	andeq	r0, r0, r0
   14c10:	636e7973 	cmnvs	lr, #1884160	; 0x1cc000
   14c14:	6e6f7268 	cdpvs	2, 6, cr7, cr15, cr8, {3}
   14c18:	2e657a69 	vnmulcs.f32	s15, s10, s19
   14c1c:	00000063 	andeq	r0, r0, r3, rrx
   14c20:	656d6974 	strbvs	r6, [sp, #-2420]!	; 0x974
   14c24:	00632e72 	rsbeq	r2, r3, r2, ror lr
   14c28:	72745370 	rsbsvc	r5, r4, #112, 6	; 0xc0000001
   14c2c:	20676e69 	rsbcs	r6, r7, r9, ror #28
   14c30:	30203d21 	eorcc	r3, r0, r1, lsr #26
   14c34:	00000000 	andeq	r0, r0, r0
   14c38:	75323025 	ldrvc	r3, [r2, #-37]!	; 0x25
   14c3c:	3230253a 	eorscc	r2, r0, #243269632	; 0xe800000
   14c40:	30253a75 	eorcc	r3, r5, r5, ror sl
   14c44:	252e7532 	strcs	r7, [lr, #-1330]!	; 0x532
   14c48:	756c3230 	strbvc	r3, [ip, #-560]!	; 0x230
   14c4c:	00000000 	andeq	r0, r0, r0
   14c50:	6e614870 	mcrvs	8, 3, r4, cr1, cr0, {3}
   14c54:	72656c64 	rsbvc	r6, r5, #100, 24	; 0x6400
   14c58:	203d2120 	eorscs	r2, sp, r0, lsr #2
   14c5c:	00000030 	andeq	r0, r0, r0, lsr r0
   14c60:	656d6974 	strbvs	r6, [sp, #-2420]!	; 0x974
   14c64:	00000072 	andeq	r0, r0, r2, ror r0
   14c68:	74737953 	ldrbtvc	r7, [r3], #-2387	; 0x953
   14c6c:	6c206d65 	stcvs	13, cr6, [r0], #-404	; 0xfffffe6c
   14c70:	74696d69 	strbtvc	r6, [r9], #-3433	; 0xd69
   14c74:	20666f20 	rsbcs	r6, r6, r0, lsr #30
   14c78:	6e72656b 	cdpvs	5, 7, cr6, cr2, cr11, {3}
   14c7c:	74206c65 	strtvc	r6, [r0], #-3173	; 0xc65
   14c80:	72656d69 	rsbvc	r6, r5, #6720	; 0x1a40
   14c84:	78652073 	stmdavc	r5!, {r0, r1, r4, r5, r6, sp}^
   14c88:	64656563 	strbtvs	r6, [r5], #-1379	; 0x563
   14c8c:	00006465 	andeq	r6, r0, r5, ror #8
   14c90:	3d3c2031 	ldccc	0, cr2, [ip, #-196]!	; 0xffffff3c
   14c94:	69546820 	ldmdbvs	r4, {r5, fp, sp, lr}^
   14c98:	2072656d 	rsbscs	r6, r2, sp, ror #10
   14c9c:	68202626 	stmdavs	r0!, {r1, r2, r5, r9, sl, sp}
   14ca0:	656d6954 	strbvs	r6, [sp, #-2388]!	; 0x954
   14ca4:	3d3c2072 	ldccc	0, cr2, [ip, #-456]!	; 0xfffffe38
   14ca8:	52454b20 	subpl	r4, r5, #32, 22	; 0x8000
   14cac:	5f4c454e 	svcpl	0x004c454e
   14cb0:	454d4954 	strbmi	r4, [sp, #-2388]	; 0x954
   14cb4:	00005352 	andeq	r5, r0, r2, asr r3
   14cb8:	64616572 	strbtvs	r6, [r1], #-1394	; 0x572
   14cbc:	28203233 	stmdacs	r0!, {r0, r1, r4, r5, r9, ip, sp}
   14cc0:	5f4d5241 	svcpl	0x004d5241
   14cc4:	54535953 	ldrbpl	r5, [r3], #-2387	; 0x953
   14cc8:	52454d49 	subpl	r4, r5, #4672	; 0x1240
   14ccc:	2953435f 	ldmdbcs	r3, {r0, r1, r2, r3, r4, r6, r8, r9, lr}^
   14cd0:	28202620 	stmdacs	r0!, {r5, r9, sl, sp}
   14cd4:	3c3c2031 	ldccc	0, cr2, [ip], #-196	; 0xffffff3c
   14cd8:	00293320 	eoreq	r3, r9, r0, lsr #6
   14cdc:	69685470 	stmdbvs	r8!, {r4, r5, r6, sl, ip, lr}^
   14ce0:	6d3e2d73 	ldcvs	13, cr2, [lr, #-460]!	; 0xfffffe34
   14ce4:	6e49705f 	mcrvs	0, 2, r7, cr9, cr15, {2}
   14ce8:	72726574 	rsbsvc	r6, r2, #116, 10	; 0x1d000000
   14cec:	53747075 	cmnpl	r4, #117	; 0x75
   14cf0:	65747379 	ldrbvs	r7, [r4, #-889]!	; 0x379
   14cf4:	3d21206d 	stccc	0, cr2, [r1, #-436]!	; 0xfffffe4c
   14cf8:	00003020 	andeq	r3, r0, r0, lsr #32
   14cfc:	6d6d6362 	stclvs	3, cr6, [sp, #-392]!	; 0xfffffe78
   14d00:	626c6961 	rsbvs	r6, ip, #1589248	; 0x184000
   14d04:	632e786f 	teqvs	lr, #7274496	; 0x6f0000
   14d08:	00000000 	andeq	r0, r0, r0
   14d0c:	61446e28 	cmpvs	r4, r8, lsr #28
   14d10:	26206174 			; <UNDEFINED> instruction: 0x26206174
   14d14:	46783020 	ldrbtmi	r3, [r8], -r0, lsr #32
   14d18:	3d3d2029 	ldccc	0, cr2, [sp, #-164]!	; 0xffffff5c
   14d1c:	00003020 	andeq	r3, r0, r0, lsr #32
   14d20:	666d6362 	strbtvs	r6, [sp], -r2, ror #6
   14d24:	656d6172 	strbvs	r6, [sp, #-370]!	; 0x172
   14d28:	66667562 	strbtvs	r7, [r6], -r2, ror #10
   14d2c:	632e7265 	teqvs	lr, #1342177286	; 0x50000006
   14d30:	00000000 	andeq	r0, r0, r0
   14d34:	18180000 	ldmdane	r8, {}	; <UNPREDICTABLE>
   14d38:	18181818 	ldmdane	r8, {r3, r4, fp, ip}
   14d3c:	00181800 	andseq	r1, r8, r0, lsl #16
   14d40:	63000000 	movwvs	r0, #0
   14d44:	00226363 	eoreq	r6, r2, r3, ror #6
	...
   14d50:	36000000 	strcc	r0, [r0], -r0
   14d54:	7f367f36 	svcvc	0x00367f36
   14d58:	00003636 	andeq	r3, r0, r6, lsr r6
   14d5c:	00000000 	andeq	r0, r0, r0
   14d60:	d8db7e18 	ldmle	fp, {r3, r4, r9, sl, fp, ip, sp, lr}^
   14d64:	7edb1b7e 	vmovvc.u8	r1, d11[3]
   14d68:	00000018 	andeq	r0, r0, r8, lsl r0
   14d6c:	db7f0000 	blle	0x1fd4d74
   14d70:	30180c76 	andscc	r0, r8, r6, ror ip
   14d74:	008edb6e 	addeq	sp, lr, lr, ror #22
   14d78:	00000000 	andeq	r0, r0, r0
   14d7c:	1c36361c 	ldcne	6, cr3, [r6], #-112	; 0xffffff90
   14d80:	66666e3b 			; <UNDEFINED> instruction: 0x66666e3b
   14d84:	0000003b 	andeq	r0, r0, fp, lsr r0
   14d88:	18181800 	ldmdane	r8, {fp, ip}
   14d8c:	00000010 	andeq	r0, r0, r0, lsl r0
	...
   14d98:	3030180c 	eorscc	r1, r0, ip, lsl #16
   14d9c:	18303030 	ldmdane	r0!, {r4, r5, ip, sp}
   14da0:	0000000c 	andeq	r0, r0, ip
   14da4:	0c180000 	ldceq	0, cr0, [r8], {-0}
   14da8:	06060606 	streq	r0, [r6], -r6, lsl #12
   14dac:	00180c06 	andseq	r0, r8, r6, lsl #24
   14db0:	00000000 	andeq	r0, r0, r0
   14db4:	18181800 	ldmdane	r8, {fp, ip}
   14db8:	42663cff 	rsbmi	r3, r6, #65280	; 0xff00
   14dbc:	00000000 	andeq	r0, r0, r0
   14dc0:	18000000 	stmdane	r0, {}	; <UNPREDICTABLE>
   14dc4:	18ff1818 	ldmne	pc!, {r3, r4, fp, ip}^	; <UNPREDICTABLE>
   14dc8:	00001818 	andeq	r1, r0, r8, lsl r8
	...
   14dd4:	38000000 	stmdacc	r0, {}	; <UNPREDICTABLE>
   14dd8:	00301838 	eorseq	r1, r0, r8, lsr r8
   14ddc:	00000000 	andeq	r0, r0, r0
   14de0:	007f0000 	rsbseq	r0, pc, r0
	...
   14df0:	38000000 	stmdacc	r0, {}	; <UNPREDICTABLE>
   14df4:	00000038 	andeq	r0, r0, r8, lsr r0
   14df8:	03010000 	movweq	r0, #4096	; 0x1000
   14dfc:	30180c06 	andscc	r0, r8, r6, lsl #24
   14e00:	0080c060 	addeq	ip, r0, r0, rrx
   14e04:	00000000 	andeq	r0, r0, r0
   14e08:	6363361c 	cmnvs	r3, #28, 12	; 0x1c00000
   14e0c:	36636363 	strbtcc	r6, [r3], -r3, ror #6
   14e10:	0000001c 	andeq	r0, r0, ip, lsl r0
   14e14:	1c0c0000 	stcne	0, cr0, [ip], {-0}
   14e18:	0c0c0c3c 	stceq	12, cr0, [ip], {60}	; 0x3c
   14e1c:	003f0c0c 	eorseq	r0, pc, ip, lsl #24
   14e20:	00000000 	andeq	r0, r0, r0
   14e24:	0603633e 			; <UNDEFINED> instruction: 0x0603633e
   14e28:	6330180c 	teqvs	r0, #12, 16	; 0xc0000
   14e2c:	0000007f 	andeq	r0, r0, pc, ror r0
   14e30:	633e0000 	teqvs	lr, #0
   14e34:	031e0303 	tsteq	lr, #201326592	; 0xc000000
   14e38:	003e6303 	eorseq	r6, lr, r3, lsl #6
   14e3c:	00000000 	andeq	r0, r0, r0
   14e40:	361e0e06 	ldrcc	r0, [lr], -r6, lsl #28
   14e44:	06067f66 	streq	r7, [r6], -r6, ror #30
   14e48:	0000000f 	andeq	r0, r0, pc
   14e4c:	607f0000 	rsbsvs	r0, pc, r0
   14e50:	037e6060 	cmneq	lr, #96	; 0x60
   14e54:	003e6303 	eorseq	r6, lr, r3, lsl #6
   14e58:	00000000 	andeq	r0, r0, r0
   14e5c:	6060301c 	rsbvs	r3, r0, ip, lsl r0
   14e60:	6363637e 	cmnvs	r3, #-134217727	; 0xf8000001
   14e64:	0000003e 	andeq	r0, r0, lr, lsr r0
   14e68:	637f0000 	cmnvs	pc, #0
   14e6c:	180c0603 	stmdane	ip, {r0, r1, r9, sl}
   14e70:	00181818 	andseq	r1, r8, r8, lsl r8
   14e74:	00000000 	andeq	r0, r0, r0
   14e78:	6363633e 	cmnvs	r3, #-134217728	; 0xf8000000
   14e7c:	6363633e 	cmnvs	r3, #-134217728	; 0xf8000000
   14e80:	0000003e 	andeq	r0, r0, lr, lsr r0
   14e84:	633e0000 	teqvs	lr, #0
   14e88:	033f6363 	teqeq	pc, #-1946157055	; 0x8c000001
   14e8c:	003c0603 	eorseq	r0, ip, r3, lsl #12
   14e90:	00000000 	andeq	r0, r0, r0
   14e94:	38380000 	ldmdacc	r8!, {}	; <UNPREDICTABLE>
   14e98:	38380000 	ldmdacc	r8!, {}	; <UNPREDICTABLE>
	...
   14ea4:	00383800 	eorseq	r3, r8, r0, lsl #16
   14ea8:	18383800 	ldmdane	r8!, {fp, ip, sp}
   14eac:	00000030 	andeq	r0, r0, r0, lsr r0
   14eb0:	30180c06 	andscc	r0, r8, r6, lsl #24
   14eb4:	0c183060 	ldceq	0, cr3, [r8], {96}	; 0x60
   14eb8:	00000006 	andeq	r0, r0, r6
   14ebc:	00000000 	andeq	r0, r0, r0
   14ec0:	7f007f00 	svcvc	0x00007f00
	...
   14ecc:	0c183060 	ldceq	0, cr3, [r8], {96}	; 0x60
   14ed0:	30180c06 	andscc	r0, r8, r6, lsl #24
   14ed4:	00000060 	andeq	r0, r0, r0, rrx
   14ed8:	633e0000 	teqvs	lr, #0
   14edc:	0c0c0663 	stceq	6, cr0, [ip], {99}	; 0x63
   14ee0:	000c0c00 	andeq	r0, ip, r0, lsl #24
   14ee4:	00000000 	andeq	r0, r0, r0
   14ee8:	03c3c37e 	biceq	ip, r3, #-134217727	; 0xf8000001
   14eec:	dbdbdb73 	blle	0xff70bcc0
   14ef0:	0000006e 	andeq	r0, r0, lr, rrx
   14ef4:	1c080000 	stcne	0, cr0, [r8], {-0}
   14ef8:	7f636336 	svcvc	0x00636336
   14efc:	00636363 	rsbeq	r6, r3, r3, ror #6
   14f00:	00000000 	andeq	r0, r0, r0
   14f04:	636363fe 	cmnvs	r3, #-134217725	; 0xf8000003
   14f08:	6363637e 	cmnvs	r3, #-134217727	; 0xf8000001
   14f0c:	000000fe 	strdeq	r0, [r0], -lr
   14f10:	331e0000 	tstcc	lr, #0
   14f14:	60606061 	rsbvs	r6, r0, r1, rrx
   14f18:	001e3361 	andseq	r3, lr, r1, ror #6
   14f1c:	00000000 	andeq	r0, r0, r0
   14f20:	636366fc 	cmnvs	r3, #252, 12	; 0xfc00000
   14f24:	66636363 	strbtvs	r6, [r3], -r3, ror #6
   14f28:	000000fc 	strdeq	r0, [r0], -ip
   14f2c:	63ff0000 	mvnsvs	r0, #0
   14f30:	647c6461 	ldrbtvs	r6, [ip], #-1121	; 0x461
   14f34:	00ff6361 	rscseq	r6, pc, r1, ror #6
   14f38:	00000000 	andeq	r0, r0, r0
   14f3c:	646163ff 	strbtvs	r6, [r1], #-1023	; 0x3ff
   14f40:	6060647c 	rsbvs	r6, r0, ip, ror r4
   14f44:	000000f8 	strdeq	r0, [r0], -r8
   14f48:	331e0000 	tstcc	lr, #0
   14f4c:	6f606061 	svcvs	0x00606061
   14f50:	001d3363 	andseq	r3, sp, r3, ror #6
   14f54:	00000000 	andeq	r0, r0, r0
   14f58:	63636363 	cmnvs	r3, #-1946157055	; 0x8c000001
   14f5c:	6363637f 	cmnvs	r3, #-67108863	; 0xfc000001
   14f60:	00000063 	andeq	r0, r0, r3, rrx
   14f64:	183c0000 	ldmdane	ip!, {}	; <UNPREDICTABLE>
   14f68:	18181818 	ldmdane	r8, {r3, r4, fp, ip}
   14f6c:	003c1818 	eorseq	r1, ip, r8, lsl r8
   14f70:	00000000 	andeq	r0, r0, r0
   14f74:	0606060f 	streq	r0, [r6], -pc, lsl #12
   14f78:	66660606 	strbtvs	r0, [r6], -r6, lsl #12
   14f7c:	0000003c 	andeq	r0, r0, ip, lsr r0
   14f80:	66e70000 	strbtvs	r0, [r7], r0
   14f84:	6c786c6c 	ldclvs	12, cr6, [r8], #-432	; 0xfffffe50
   14f88:	00e7666c 	rsceq	r6, r7, ip, ror #12
   14f8c:	00000000 	andeq	r0, r0, r0
   14f90:	606060f8 	strdvs	r6, [r0], #-8	; <UNPREDICTABLE>
   14f94:	63616060 	cmnvs	r1, #96	; 0x60
   14f98:	000000ff 	strdeq	r0, [r0], -pc	; <UNPREDICTABLE>
   14f9c:	c3810000 	orrgt	r0, r1, #0
   14fa0:	c3dbffe7 	bicsgt	pc, fp, #924	; 0x39c
   14fa4:	00c3c3c3 	sbceq	ip, r3, r3, asr #7
   14fa8:	00000000 	andeq	r0, r0, r0
   14fac:	7b7363c3 	blvc	0x1cedec0
   14fb0:	6363676f 	cmnvs	r3, #29097984	; 0x1bc0000
   14fb4:	000000e3 	andeq	r0, r0, r3, ror #1
   14fb8:	633e0000 	teqvs	lr, #0
   14fbc:	63636363 	cmnvs	r3, #-1946157055	; 0x8c000001
   14fc0:	003e6363 	eorseq	r6, lr, r3, ror #6
   14fc4:	00000000 	andeq	r0, r0, r0
   14fc8:	636363fe 	cmnvs	r3, #-134217725	; 0xf8000003
   14fcc:	6060607e 	rsbvs	r6, r0, lr, ror r0
   14fd0:	000000f8 	strdeq	r0, [r0], -r8
   14fd4:	c37e0000 	cmngt	lr, #0
   14fd8:	c3c3c3c3 	bicgt	ip, r3, #201326595	; 0xc000003
   14fdc:	067ecfdb 			; <UNDEFINED> instruction: 0x067ecfdb
   14fe0:	00000003 	andeq	r0, r0, r3
   14fe4:	636363fe 	cmnvs	r3, #-134217725	; 0xf8000003
   14fe8:	66666c7e 			; <UNDEFINED> instruction: 0x66666c7e
   14fec:	000000e7 	andeq	r0, r0, r7, ror #1
   14ff0:	633e0000 	teqvs	lr, #0
   14ff4:	061c3063 	ldreq	r3, [ip], -r3, rrx
   14ff8:	003e6363 	eorseq	r6, lr, r3, ror #6
   14ffc:	00000000 	andeq	r0, r0, r0
   15000:	1899dbff 	ldmne	r9, {r0, r1, r2, r3, r4, r5, r6, r7, r8, r9, fp, ip, lr, pc}
   15004:	18181818 	ldmdane	r8, {r3, r4, fp, ip}
   15008:	0000003c 	andeq	r0, r0, ip, lsr r0
   1500c:	63630000 	cmnvs	r3, #0
   15010:	63636363 	cmnvs	r3, #-1946157055	; 0x8c000001
   15014:	003e6363 	eorseq	r6, lr, r3, ror #6
   15018:	00000000 	andeq	r0, r0, r0
   1501c:	c3c3c3c3 	bicgt	ip, r3, #201326595	; 0xc000003
   15020:	3c66c3c3 	stclcc	3, cr12, [r6], #-780	; 0xfffffcf4
   15024:	00000018 	andeq	r0, r0, r8, lsl r0
   15028:	c3c30000 	bicgt	r0, r3, #0
   1502c:	dbdbc3c3 	blle	0xff705f40
   15030:	006666ff 	strdeq	r6, [r6], #-111	; 0xffffff91	; <UNPREDICTABLE>
   15034:	00000000 	andeq	r0, r0, r0
   15038:	3c66c3c3 	stclcc	3, cr12, [r6], #-780	; 0xfffffcf4
   1503c:	c3663c18 	cmngt	r6, #24, 24	; 0x1800
   15040:	000000c3 	andeq	r0, r0, r3, asr #1
   15044:	c3c30000 	bicgt	r0, r3, #0
   15048:	183c66c3 	ldmdane	ip!, {r0, r1, r6, r7, r9, sl, sp, lr}
   1504c:	003c1818 	eorseq	r1, ip, r8, lsl r8
   15050:	00000000 	andeq	r0, r0, r0
   15054:	0c86c3ff 	stceq	3, cr12, [r6], {255}	; 0xff
   15058:	c3613018 	cmngt	r1, #24
   1505c:	000000ff 	strdeq	r0, [r0], -pc	; <UNPREDICTABLE>
   15060:	303c0000 	eorscc	r0, ip, r0
   15064:	30303030 	eorscc	r3, r0, r0, lsr r0
   15068:	003c3030 	eorseq	r3, ip, r0, lsr r0
   1506c:	00000000 	andeq	r0, r0, r0
   15070:	3060c080 	rsbcc	ip, r0, r0, lsl #1
   15074:	03060c18 	movweq	r0, #27672	; 0x6c18
   15078:	00000001 	andeq	r0, r0, r1
   1507c:	0c3c0000 	ldceq	0, cr0, [ip], #-0
   15080:	0c0c0c0c 	stceq	12, cr0, [ip], {12}
   15084:	003c0c0c 	eorseq	r0, ip, ip, lsl #24
   15088:	00000000 	andeq	r0, r0, r0
   1508c:	1c080000 	stcne	0, cr0, [r8], {-0}
   15090:	00416336 	subeq	r6, r1, r6, lsr r3
	...
   150a4:	180000ff 	stmdane	r0, {r0, r1, r2, r3, r4, r5, r6, r7}
   150a8:	00081818 	andeq	r1, r8, r8, lsl r8
	...
   150b8:	3e063c00 	cdpcc	12, 0, cr3, cr6, cr0, {0}
   150bc:	003b6666 	eorseq	r6, fp, r6, ror #12
   150c0:	00000000 	andeq	r0, r0, r0
   150c4:	6e6060e0 	cdpvs	0, 6, cr6, cr0, cr0, {7}
   150c8:	73636373 	cmnvc	r3, #-872415231	; 0xcc000001
   150cc:	000000de 	ldrdeq	r0, [r0], -lr
   150d0:	00000000 	andeq	r0, r0, r0
   150d4:	60633e00 	rsbvs	r3, r3, r0, lsl #28
   150d8:	003e6360 	eorseq	r6, lr, r0, ror #6
   150dc:	00000000 	andeq	r0, r0, r0
   150e0:	7606060e 	strvc	r0, [r6], -lr, lsl #12
   150e4:	cec6c6ce 	cdpgt	6, 12, cr12, cr6, cr14, {6}
   150e8:	0000007b 	andeq	r0, r0, fp, ror r0
   150ec:	00000000 	andeq	r0, r0, r0
   150f0:	7f633e00 	svcvc	0x00633e00
   150f4:	003e6360 	eorseq	r6, lr, r0, ror #6
   150f8:	00000000 	andeq	r0, r0, r0
   150fc:	3032361c 	eorscc	r3, r2, ip, lsl r6
   15100:	3030307c 	eorscc	r3, r0, ip, ror r0
   15104:	00000078 	andeq	r0, r0, r8, ror r0
   15108:	00000000 	andeq	r0, r0, r0
   1510c:	66663b00 	strbtvs	r3, [r6], -r0, lsl #22
   15110:	06366e66 	ldrteq	r6, [r6], -r6, ror #28
   15114:	0000003c 	andeq	r0, r0, ip, lsr r0
   15118:	6c6060e0 	stclvs	0, cr6, [r0], #-896	; 0xfffffc80
   1511c:	66666676 			; <UNDEFINED> instruction: 0x66666676
   15120:	000000e7 	andeq	r0, r0, r7, ror #1
   15124:	18180000 	ldmdane	r8, {}	; <UNPREDICTABLE>
   15128:	18183800 	ldmdane	r8, {fp, ip, sp}
   1512c:	003c1818 	eorseq	r1, ip, r8, lsl r8
   15130:	00000000 	andeq	r0, r0, r0
   15134:	0e000606 	cfmadd32eq	mvax0, mvfx0, mvfx0, mvfx6
   15138:	06060606 	streq	r0, [r6], -r6, lsl #12
   1513c:	003c6666 	eorseq	r6, ip, r6, ror #12
   15140:	60e00000 	rscvs	r0, r0, r0
   15144:	786c6760 	stmdavc	ip!, {r5, r6, r8, r9, sl, sp, lr}^
   15148:	00e7666c 	rsceq	r6, r7, ip, ror #12
   1514c:	00000000 	andeq	r0, r0, r0
   15150:	18181838 	ldmdane	r8, {r3, r4, r5, fp, ip}
   15154:	18181818 	ldmdane	r8, {r3, r4, fp, ip}
   15158:	0000003c 	andeq	r0, r0, ip, lsr r0
   1515c:	00000000 	andeq	r0, r0, r0
   15160:	dbffb600 	blle	0x2968
   15164:	00dbdbdb 	ldrsbeq	sp, [fp], #187	; 0xbb
   15168:	00000000 	andeq	r0, r0, r0
   1516c:	dc000000 	stcle	0, cr0, [r0], {-0}
   15170:	66666666 	strbtvs	r6, [r6], -r6, ror #12
   15174:	000000e7 	andeq	r0, r0, r7, ror #1
   15178:	00000000 	andeq	r0, r0, r0
   1517c:	63633e00 	cmnvs	r3, #0, 28
   15180:	003e6363 	eorseq	r6, lr, r3, ror #6
   15184:	00000000 	andeq	r0, r0, r0
   15188:	de000000 	cdple	0, 0, cr0, cr0, cr0, {0}
   1518c:	73636373 	cmnvc	r3, #-872415231	; 0xcc000001
   15190:	00f0606e 	rscseq	r6, r0, lr, rrx
   15194:	00000000 	andeq	r0, r0, r0
   15198:	66663b00 	strbtvs	r3, [r6], -r0, lsl #22
   1519c:	06366e66 	ldrteq	r6, [r6], -r6, ror #28
   151a0:	0000000f 	andeq	r0, r0, pc
   151a4:	6e000000 	cdpvs	0, 0, cr0, cr0, cr0, {0}
   151a8:	3030333b 	eorscc	r3, r0, fp, lsr r3
   151ac:	00000078 	andeq	r0, r0, r8, ror r0
   151b0:	00000000 	andeq	r0, r0, r0
   151b4:	38633e00 	stmdacc	r3!, {r9, sl, fp, ip, sp}^
   151b8:	003e630e 	eorseq	r6, lr, lr, lsl #6
   151bc:	00000000 	andeq	r0, r0, r0
   151c0:	7e181808 	cdpvc	8, 1, cr1, cr8, cr8, {0}
   151c4:	1b181818 	blne	0x61b22c
   151c8:	0000000e 	andeq	r0, r0, lr
   151cc:	00000000 	andeq	r0, r0, r0
   151d0:	66666600 	strbtvs	r6, [r6], -r0, lsl #12
   151d4:	003b6666 	eorseq	r6, fp, r6, ror #12
   151d8:	00000000 	andeq	r0, r0, r0
   151dc:	c3000000 	movwgt	r0, #0
   151e0:	3c66c3c3 	stclcc	3, cr12, [r6], #-780	; 0xfffffcf4
   151e4:	00000018 	andeq	r0, r0, r8, lsl r0
   151e8:	00000000 	andeq	r0, r0, r0
   151ec:	dbc3c300 	blle	0xff105df4
   151f0:	0066ffdb 	ldrdeq	pc, [r6], #-251	; 0xffffff05	; <UNPREDICTABLE>
   151f4:	00000000 	andeq	r0, r0, r0
   151f8:	63000000 	movwvs	r0, #0
   151fc:	361c1c36 			; <UNDEFINED> instruction: 0x361c1c36
   15200:	00000063 	andeq	r0, r0, r3, rrx
   15204:	00000000 	andeq	r0, r0, r0
   15208:	63636300 	cmnvs	r3, #0, 6
   1520c:	063b6763 	ldrteq	r6, [fp], -r3, ror #14
   15210:	0000003c 	andeq	r0, r0, ip, lsr r0
   15214:	7f000000 	svcvc	0x00000000
   15218:	33180c66 	tstcc	r8, #26112	; 0x6600
   1521c:	0000007f 	andeq	r0, r0, pc, ror r0
   15220:	180e0000 	stmdane	lr, {}	; <UNPREDICTABLE>
   15224:	18701818 	ldmdane	r0!, {r3, r4, fp, ip}^
   15228:	000e1818 	andeq	r1, lr, r8, lsl r8
   1522c:	00000000 	andeq	r0, r0, r0
   15230:	18181818 	ldmdane	r8, {r3, r4, fp, ip}
   15234:	18181800 	ldmdane	r8, {fp, ip}
   15238:	00000018 	andeq	r0, r0, r8, lsl r0
   1523c:	18700000 	ldmdane	r0!, {}^	; <UNPREDICTABLE>
   15240:	180e1818 	stmdane	lr, {r3, r4, fp, ip}
   15244:	00701818 	rsbseq	r1, r0, r8, lsl r8
   15248:	00000000 	andeq	r0, r0, r0
   1524c:	70000000 	andvc	r0, r0, r0
   15250:	00000edb 	ldrdeq	r0, [r0], -fp
   15254:	00000000 	andeq	r0, r0, r0
   15258:	72616863 	rsbvc	r6, r1, #6488064	; 0x630000
   1525c:	656e6567 	strbvs	r6, [lr, #-1383]!	; 0x567
   15260:	6f746172 	svcvs	0x00746172
   15264:	00632e72 	rsbeq	r2, r3, r2, ror lr
   15268:	646e496e 	strbtvs	r4, [lr], #-2414	; 0x96e
   1526c:	3c207865 	stccc	8, cr7, [r0], #-404	; 0xfffffe6c
   15270:	41484320 	cmpmi	r8, r0, lsr #6
   15274:	554f4352 	strbpl	r4, [pc, #-850]	; 0x14f2a
   15278:	0000544e 	andeq	r5, r0, lr, asr #8
   1527c:	736f506e 	cmnvc	pc, #110	; 0x6e
   15280:	203c2058 	eorscs	r2, ip, r8, asr r0
   15284:	69685470 	stmdbvs	r8!, {r4, r5, r6, sl, ip, lr}^
   15288:	6d3e2d73 	ldcvs	13, cr2, [lr, #-460]!	; 0xfffffe34
   1528c:	68436e5f 	stmdavs	r3, {r0, r1, r2, r3, r4, r6, r9, sl, fp, sp, lr}^
   15290:	69577261 	ldmdbvs	r7, {r0, r5, r6, r9, ip, sp, lr}^
   15294:	00687464 	rsbeq	r7, r8, r4, ror #8
   15298:	6862696c 	stmdavs	r2!, {r2, r3, r5, r6, r8, fp, sp, lr}^
   1529c:	65706c65 	ldrbvs	r6, [r0, #-3173]!	; 0xc65
   152a0:	00632e72 	rsbeq	r2, r3, r2, ror lr
   152a4:	00000040 	andeq	r0, r0, r0, asr #32
   152a8:	00000000 	andeq	r0, r0, r0
   152ac:	00000400 	andeq	r0, r0, r0, lsl #8
   152b0:	00000000 	andeq	r0, r0, r0
   152b4:	00001000 	andeq	r1, r0, r0
   152b8:	00000000 	andeq	r0, r0, r0
   152bc:	00004000 	andeq	r4, r0, r0
   152c0:	00000000 	andeq	r0, r0, r0
   152c4:	00040000 	andeq	r0, r4, r0
   152c8:	00000000 	andeq	r0, r0, r0
   152cc:	00080000 	andeq	r0, r8, r0
	...
