Archive member included because of file (symbol)

c:/program files (x86)/gnu tools arm embedded/4.9 2015q1/bin/../lib/gcc/arm-none-eabi/4.9.3/../../../../arm-none-eabi/lib\libc.a(lib_a-rand.o)
                              ./src/armtimer.o (rand)
c:/program files (x86)/gnu tools arm embedded/4.9 2015q1/bin/../lib/gcc/arm-none-eabi/4.9.3/../../../../arm-none-eabi/lib\libc.a(lib_a-impure.o)
                              c:/program files (x86)/gnu tools arm embedded/4.9 2015q1/bin/../lib/gcc/arm-none-eabi/4.9.3/../../../../arm-none-eabi/lib\libc.a(lib_a-rand.o) (_impure_ptr)
c:/program files (x86)/gnu tools arm embedded/4.9 2015q1/bin/../lib/gcc/arm-none-eabi/4.9.3\libgcc.a(_aeabi_ldivmod.o)
                              ./src/armtimer.o (__aeabi_ldivmod)
c:/program files (x86)/gnu tools arm embedded/4.9 2015q1/bin/../lib/gcc/arm-none-eabi/4.9.3\libgcc.a(bpabi.o)
                              c:/program files (x86)/gnu tools arm embedded/4.9 2015q1/bin/../lib/gcc/arm-none-eabi/4.9.3\libgcc.a(_aeabi_ldivmod.o) (__gnu_ldivmod_helper)
c:/program files (x86)/gnu tools arm embedded/4.9 2015q1/bin/../lib/gcc/arm-none-eabi/4.9.3\libgcc.a(_dvmd_tls.o)
                              c:/program files (x86)/gnu tools arm embedded/4.9 2015q1/bin/../lib/gcc/arm-none-eabi/4.9.3\libgcc.a(_aeabi_ldivmod.o) (__aeabi_ldiv0)
c:/program files (x86)/gnu tools arm embedded/4.9 2015q1/bin/../lib/gcc/arm-none-eabi/4.9.3\libgcc.a(_divdi3.o)
                              c:/program files (x86)/gnu tools arm embedded/4.9 2015q1/bin/../lib/gcc/arm-none-eabi/4.9.3\libgcc.a(bpabi.o) (__divdi3)
c:/program files (x86)/gnu tools arm embedded/4.9 2015q1/bin/../lib/gcc/arm-none-eabi/4.9.3\libgcc.a(_udivdi3.o)
                              c:/program files (x86)/gnu tools arm embedded/4.9 2015q1/bin/../lib/gcc/arm-none-eabi/4.9.3\libgcc.a(bpabi.o) (__udivdi3)
c:/program files (x86)/gnu tools arm embedded/4.9 2015q1/bin/../lib/gcc/arm-none-eabi/4.9.3\libgcc.a(_clzdi2.o)
                              c:/program files (x86)/gnu tools arm embedded/4.9 2015q1/bin/../lib/gcc/arm-none-eabi/4.9.3\libgcc.a(_divdi3.o) (__clzdi2)
c:/program files (x86)/gnu tools arm embedded/4.9 2015q1/bin/../lib/gcc/arm-none-eabi/4.9.3\libgcc.a(_clzsi2.o)
                              c:/program files (x86)/gnu tools arm embedded/4.9 2015q1/bin/../lib/gcc/arm-none-eabi/4.9.3\libgcc.a(_clzdi2.o) (__clzsi2)

Allocating common symbols
Common symbol       size              file

fb_info             0x18              ./src/FrameBuffer.o
globalCounter       0x2               ./src/armtimer.o

Discarded input sections

 .group         0x00000000        0x8 ./src/lib/alloc.o
 .group         0x00000000        0x8 ./src/lib/alloc.o
 .group         0x00000000        0x8 ./src/lib/alloc.o
 .group         0x00000000        0x8 ./src/lib/alloc.o
 .group         0x00000000        0x8 ./src/lib/alloc.o
 .group         0x00000000        0x8 ./src/lib/alloc.o
 .group         0x00000000        0x8 ./src/lib/alloc.o
 .group         0x00000000        0x8 ./src/lib/assert.o
 .group         0x00000000        0x8 ./src/lib/assert.o
 .group         0x00000000        0x8 ./src/lib/assert.o
 .group         0x00000000        0x8 ./src/lib/assert.o
 .group         0x00000000        0x8 ./src/lib/assert.o
 .group         0x00000000        0x8 ./src/lib/assert.o
 .group         0x00000000        0x8 ./src/lib/assert.o
 .group         0x00000000        0x8 ./src/lib/assert.o
 .group         0x00000000        0x8 ./src/lib/assert.o
 .group         0x00000000        0x8 ./src/lib/assert.o
 .group         0x00000000        0x8 ./src/lib/assert.o
 .debug_macro   0x00000000      0x862 ./src/lib/assert.o
 .debug_macro   0x00000000       0x10 ./src/lib/assert.o
 .debug_macro   0x00000000       0x76 ./src/lib/assert.o
 .debug_macro   0x00000000       0x16 ./src/lib/assert.o
 .debug_macro   0x00000000       0x28 ./src/lib/assert.o
 .group         0x00000000        0x8 ./src/lib/bcmframebuffer.o
 .group         0x00000000        0x8 ./src/lib/bcmframebuffer.o
 .group         0x00000000        0x8 ./src/lib/bcmframebuffer.o
 .group         0x00000000        0x8 ./src/lib/bcmframebuffer.o
 .group         0x00000000        0x8 ./src/lib/bcmframebuffer.o
 .group         0x00000000        0x8 ./src/lib/bcmframebuffer.o
 .group         0x00000000        0x8 ./src/lib/bcmframebuffer.o
 .group         0x00000000        0x8 ./src/lib/bcmframebuffer.o
 .group         0x00000000        0x8 ./src/lib/bcmframebuffer.o
 .debug_macro   0x00000000      0x862 ./src/lib/bcmframebuffer.o
 .debug_macro   0x00000000       0x76 ./src/lib/bcmframebuffer.o
 .debug_macro   0x00000000      0x25b ./src/lib/bcmframebuffer.o
 .debug_macro   0x00000000       0x16 ./src/lib/bcmframebuffer.o
 .debug_macro   0x00000000       0x28 ./src/lib/bcmframebuffer.o
 .debug_macro   0x00000000       0x40 ./src/lib/bcmframebuffer.o
 .debug_macro   0x00000000       0x10 ./src/lib/bcmframebuffer.o
 .debug_macro   0x00000000       0x10 ./src/lib/bcmframebuffer.o
 .group         0x00000000        0x8 ./src/lib/bcmmailbox.o
 .group         0x00000000        0x8 ./src/lib/bcmmailbox.o
 .group         0x00000000        0x8 ./src/lib/bcmmailbox.o
 .group         0x00000000        0x8 ./src/lib/bcmmailbox.o
 .group         0x00000000        0x8 ./src/lib/bcmmailbox.o
 .group         0x00000000        0x8 ./src/lib/bcmmailbox.o
 .group         0x00000000        0x8 ./src/lib/bcmmailbox.o
 .group         0x00000000        0x8 ./src/lib/bcmmailbox.o
 .group         0x00000000        0x8 ./src/lib/bcmmailbox.o
 .group         0x00000000        0x8 ./src/lib/bcmmailbox.o
 .group         0x00000000        0x8 ./src/lib/bcmmailbox.o
 .debug_macro   0x00000000      0x862 ./src/lib/bcmmailbox.o
 .debug_macro   0x00000000       0x76 ./src/lib/bcmmailbox.o
 .debug_macro   0x00000000      0x25b ./src/lib/bcmmailbox.o
 .debug_macro   0x00000000       0x16 ./src/lib/bcmmailbox.o
 .debug_macro   0x00000000       0x28 ./src/lib/bcmmailbox.o
 .debug_macro   0x00000000       0x40 ./src/lib/bcmmailbox.o
 .debug_macro   0x00000000      0x1d8 ./src/lib/bcmmailbox.o
 .debug_macro   0x00000000       0x1c ./src/lib/bcmmailbox.o
 .debug_macro   0x00000000       0x1c ./src/lib/bcmmailbox.o
 .debug_macro   0x00000000       0x16 ./src/lib/bcmmailbox.o
 .debug_macro   0x00000000       0x10 ./src/lib/bcmmailbox.o
 .group         0x00000000        0x8 ./src/lib/bcmpropertytags.o
 .group         0x00000000        0x8 ./src/lib/bcmpropertytags.o
 .group         0x00000000        0x8 ./src/lib/bcmpropertytags.o
 .group         0x00000000        0x8 ./src/lib/bcmpropertytags.o
 .group         0x00000000        0x8 ./src/lib/bcmpropertytags.o
 .group         0x00000000        0x8 ./src/lib/bcmpropertytags.o
 .group         0x00000000        0x8 ./src/lib/bcmpropertytags.o
 .group         0x00000000        0x8 ./src/lib/bcmpropertytags.o
 .debug_macro   0x00000000      0x862 ./src/lib/bcmpropertytags.o
 .debug_macro   0x00000000       0x76 ./src/lib/bcmpropertytags.o
 .debug_macro   0x00000000      0x25b ./src/lib/bcmpropertytags.o
 .debug_macro   0x00000000       0x16 ./src/lib/bcmpropertytags.o
 .debug_macro   0x00000000       0xa0 ./src/lib/bcmpropertytags.o
 .debug_macro   0x00000000       0x28 ./src/lib/bcmpropertytags.o
 .debug_macro   0x00000000       0x40 ./src/lib/bcmpropertytags.o
 .debug_macro   0x00000000       0x10 ./src/lib/bcmpropertytags.o
 .group         0x00000000        0x8 ./src/lib/chargenerator.o
 .group         0x00000000        0x8 ./src/lib/chargenerator.o
 .group         0x00000000        0x8 ./src/lib/chargenerator.o
 .group         0x00000000        0x8 ./src/lib/chargenerator.o
 .debug_macro   0x00000000      0x862 ./src/lib/chargenerator.o
 .debug_macro   0x00000000       0x16 ./src/lib/chargenerator.o
 .debug_macro   0x00000000       0x10 ./src/lib/chargenerator.o
 .group         0x00000000        0x8 ./src/lib/debug.o
 .group         0x00000000        0x8 ./src/lib/debug.o
 .group         0x00000000        0x8 ./src/lib/debug.o
 .group         0x00000000        0x8 ./src/lib/debug.o
 .group         0x00000000        0x8 ./src/lib/debug.o
 .group         0x00000000        0x8 ./src/lib/debug.o
 .group         0x00000000        0x8 ./src/lib/debug.o
 .group         0x00000000        0x8 ./src/lib/debug.o
 .group         0x00000000        0x8 ./src/lib/debug.o
 .group         0x00000000        0x8 ./src/lib/debug.o
 .debug_macro   0x00000000      0x862 ./src/lib/debug.o
 .debug_macro   0x00000000       0x16 ./src/lib/debug.o
 .debug_macro   0x00000000       0x76 ./src/lib/debug.o
 .debug_macro   0x00000000      0x25b ./src/lib/debug.o
 .debug_macro   0x00000000       0x28 ./src/lib/debug.o
 .debug_macro   0x00000000       0x40 ./src/lib/debug.o
 .debug_macro   0x00000000      0x1d8 ./src/lib/debug.o
 .debug_macro   0x00000000       0x1c ./src/lib/debug.o
 .debug_macro   0x00000000       0x1c ./src/lib/debug.o
 .debug_macro   0x00000000       0x16 ./src/lib/debug.o
 .group         0x00000000        0x8 ./src/lib/exceptionhandler.o
 .group         0x00000000        0x8 ./src/lib/exceptionhandler.o
 .group         0x00000000        0x8 ./src/lib/exceptionhandler.o
 .group         0x00000000        0x8 ./src/lib/exceptionhandler.o
 .group         0x00000000        0x8 ./src/lib/exceptionhandler.o
 .group         0x00000000        0x8 ./src/lib/exceptionhandler.o
 .group         0x00000000        0x8 ./src/lib/exceptionhandler.o
 .group         0x00000000        0x8 ./src/lib/exceptionhandler.o
 .group         0x00000000        0x8 ./src/lib/exceptionhandler.o
 .group         0x00000000        0x8 ./src/lib/exceptionhandler.o
 .group         0x00000000        0x8 ./src/lib/exceptionhandler.o
 .group         0x00000000        0x8 ./src/lib/exceptionhandler.o
 .group         0x00000000        0x8 ./src/lib/exceptionhandler.o
 .debug_macro   0x00000000      0x862 ./src/lib/exceptionhandler.o
 .debug_macro   0x00000000       0x16 ./src/lib/exceptionhandler.o
 .debug_macro   0x00000000       0x28 ./src/lib/exceptionhandler.o
 .debug_macro   0x00000000       0x40 ./src/lib/exceptionhandler.o
 .debug_macro   0x00000000       0x76 ./src/lib/exceptionhandler.o
 .debug_macro   0x00000000      0x25b ./src/lib/exceptionhandler.o
 .debug_macro   0x00000000       0x40 ./src/lib/exceptionhandler.o
 .debug_macro   0x00000000      0x1d8 ./src/lib/exceptionhandler.o
 .debug_macro   0x00000000       0x1c ./src/lib/exceptionhandler.o
 .debug_macro   0x00000000       0x16 ./src/lib/exceptionhandler.o
 .debug_macro   0x00000000       0x10 ./src/lib/exceptionhandler.o
 .group         0x00000000        0x8 ./src/lib/interrupt.o
 .group         0x00000000        0x8 ./src/lib/interrupt.o
 .group         0x00000000        0x8 ./src/lib/interrupt.o
 .group         0x00000000        0x8 ./src/lib/interrupt.o
 .group         0x00000000        0x8 ./src/lib/interrupt.o
 .group         0x00000000        0x8 ./src/lib/interrupt.o
 .group         0x00000000        0x8 ./src/lib/interrupt.o
 .group         0x00000000        0x8 ./src/lib/interrupt.o
 .group         0x00000000        0x8 ./src/lib/interrupt.o
 .debug_macro   0x00000000      0x862 ./src/lib/interrupt.o
 .debug_macro   0x00000000      0x1d8 ./src/lib/interrupt.o
 .debug_macro   0x00000000       0x16 ./src/lib/interrupt.o
 .debug_macro   0x00000000       0x16 ./src/lib/interrupt.o
 .debug_macro   0x00000000       0x28 ./src/lib/interrupt.o
 .debug_macro   0x00000000       0x40 ./src/lib/interrupt.o
 .debug_macro   0x00000000       0x76 ./src/lib/interrupt.o
 .debug_macro   0x00000000      0x25b ./src/lib/interrupt.o
 .debug_macro   0x00000000       0x10 ./src/lib/interrupt.o
 .group         0x00000000        0x8 ./src/lib/libhelper.o
 .group         0x00000000        0x8 ./src/lib/libhelper.o
 .group         0x00000000        0x8 ./src/lib/libhelper.o
 .group         0x00000000        0x8 ./src/lib/libhelper.o
 .group         0x00000000        0x8 ./src/lib/libhelper.o
 .debug_macro   0x00000000      0x862 ./src/lib/libhelper.o
 .debug_macro   0x00000000       0x10 ./src/lib/libhelper.o
 .debug_macro   0x00000000       0x22 ./src/lib/libhelper.o
 .debug_macro   0x00000000       0x16 ./src/lib/libhelper.o
 .debug_macro   0x00000000       0x16 ./src/lib/libhelper.o
 .group         0x00000000        0x8 ./src/lib/logger.o
 .group         0x00000000        0x8 ./src/lib/logger.o
 .group         0x00000000        0x8 ./src/lib/logger.o
 .group         0x00000000        0x8 ./src/lib/logger.o
 .group         0x00000000        0x8 ./src/lib/logger.o
 .group         0x00000000        0x8 ./src/lib/logger.o
 .group         0x00000000        0x8 ./src/lib/logger.o
 .group         0x00000000        0x8 ./src/lib/logger.o
 .group         0x00000000        0x8 ./src/lib/logger.o
 .group         0x00000000        0x8 ./src/lib/logger.o
 .group         0x00000000        0x8 ./src/lib/logger.o
 .group         0x00000000        0x8 ./src/lib/logger.o
 .debug_macro   0x00000000      0x862 ./src/lib/logger.o
 .debug_macro   0x00000000       0x76 ./src/lib/logger.o
 .debug_macro   0x00000000      0x25b ./src/lib/logger.o
 .debug_macro   0x00000000       0x16 ./src/lib/logger.o
 .debug_macro   0x00000000       0x28 ./src/lib/logger.o
 .debug_macro   0x00000000       0x40 ./src/lib/logger.o
 .debug_macro   0x00000000      0x1d8 ./src/lib/logger.o
 .debug_macro   0x00000000       0x1c ./src/lib/logger.o
 .debug_macro   0x00000000       0x1c ./src/lib/logger.o
 .debug_macro   0x00000000       0x16 ./src/lib/logger.o
 .debug_macro   0x00000000       0x10 ./src/lib/logger.o
 .group         0x00000000        0x8 ./src/lib/memio.o
 .group         0x00000000        0x8 ./src/lib/memio.o
 .debug_macro   0x00000000      0x862 ./src/lib/memio.o
 .debug_macro   0x00000000       0x16 ./src/lib/memio.o
 .group         0x00000000        0x8 ./src/lib/memory.o
 .group         0x00000000        0x8 ./src/lib/memory.o
 .group         0x00000000        0x8 ./src/lib/memory.o
 .group         0x00000000        0x8 ./src/lib/memory.o
 .group         0x00000000        0x8 ./src/lib/memory.o
 .group         0x00000000        0x8 ./src/lib/memory.o
 .group         0x00000000        0x8 ./src/lib/memory.o
 .group         0x00000000        0x8 ./src/lib/memory.o
 .group         0x00000000        0x8 ./src/lib/memory.o
 .group         0x00000000        0x8 ./src/lib/memory.o
 .debug_macro   0x00000000      0x862 ./src/lib/memory.o
 .debug_macro   0x00000000       0x28 ./src/lib/memory.o
 .debug_macro   0x00000000       0x16 ./src/lib/memory.o
 .debug_macro   0x00000000       0x76 ./src/lib/memory.o
 .debug_macro   0x00000000      0x25b ./src/lib/memory.o
 .debug_macro   0x00000000       0xa0 ./src/lib/memory.o
 .debug_macro   0x00000000       0x10 ./src/lib/memory.o
 .debug_macro   0x00000000       0x46 ./src/lib/memory.o
 .debug_macro   0x00000000       0x10 ./src/lib/memory.o
 .group         0x00000000        0x8 ./src/lib/pagetable.o
 .group         0x00000000        0x8 ./src/lib/pagetable.o
 .group         0x00000000        0x8 ./src/lib/pagetable.o
 .group         0x00000000        0x8 ./src/lib/pagetable.o
 .group         0x00000000        0x8 ./src/lib/pagetable.o
 .group         0x00000000        0x8 ./src/lib/pagetable.o
 .group         0x00000000        0x8 ./src/lib/pagetable.o
 .group         0x00000000        0x8 ./src/lib/pagetable.o
 .debug_macro   0x00000000      0x862 ./src/lib/pagetable.o
 .debug_macro   0x00000000       0x28 ./src/lib/pagetable.o
 .debug_macro   0x00000000       0x16 ./src/lib/pagetable.o
 .debug_macro   0x00000000       0xe9 ./src/lib/pagetable.o
 .debug_macro   0x00000000       0x10 ./src/lib/pagetable.o
 .debug_macro   0x00000000       0x76 ./src/lib/pagetable.o
 .debug_macro   0x00000000       0x46 ./src/lib/pagetable.o
 .debug_macro   0x00000000       0x10 ./src/lib/pagetable.o
 .group         0x00000000        0x8 ./src/lib/screen.o
 .group         0x00000000        0x8 ./src/lib/screen.o
 .group         0x00000000        0x8 ./src/lib/screen.o
 .group         0x00000000        0x8 ./src/lib/screen.o
 .group         0x00000000        0x8 ./src/lib/screen.o
 .group         0x00000000        0x8 ./src/lib/screen.o
 .group         0x00000000        0x8 ./src/lib/screen.o
 .group         0x00000000        0x8 ./src/lib/screen.o
 .debug_macro   0x00000000      0x862 ./src/lib/screen.o
 .debug_macro   0x00000000       0x76 ./src/lib/screen.o
 .debug_macro   0x00000000      0x25b ./src/lib/screen.o
 .debug_macro   0x00000000       0x16 ./src/lib/screen.o
 .debug_macro   0x00000000       0x28 ./src/lib/screen.o
 .debug_macro   0x00000000       0x40 ./src/lib/screen.o
 .debug_macro   0x00000000       0x46 ./src/lib/screen.o
 .debug_macro   0x00000000       0x10 ./src/lib/screen.o
 .group         0x00000000        0x8 ./src/lib/string.o
 .group         0x00000000        0x8 ./src/lib/string.o
 .group         0x00000000        0x8 ./src/lib/string.o
 .group         0x00000000        0x8 ./src/lib/string.o
 .group         0x00000000        0x8 ./src/lib/string.o
 .debug_macro   0x00000000      0x862 ./src/lib/string.o
 .debug_macro   0x00000000       0x1c ./src/lib/string.o
 .debug_macro   0x00000000       0x16 ./src/lib/string.o
 .debug_macro   0x00000000       0x10 ./src/lib/string.o
 .debug_macro   0x00000000       0x10 ./src/lib/string.o
 .group         0x00000000        0x8 ./src/lib/synchronize.o
 .group         0x00000000        0x8 ./src/lib/synchronize.o
 .group         0x00000000        0x8 ./src/lib/synchronize.o
 .group         0x00000000        0x8 ./src/lib/synchronize.o
 .group         0x00000000        0x8 ./src/lib/synchronize.o
 .debug_macro   0x00000000      0x862 ./src/lib/synchronize.o
 .debug_macro   0x00000000       0x28 ./src/lib/synchronize.o
 .debug_macro   0x00000000       0x16 ./src/lib/synchronize.o
 .debug_macro   0x00000000       0x40 ./src/lib/synchronize.o
 .debug_macro   0x00000000       0x10 ./src/lib/synchronize.o
 .group         0x00000000        0x8 ./src/lib/sysinit.o
 .group         0x00000000        0x8 ./src/lib/sysinit.o
 .group         0x00000000        0x8 ./src/lib/sysinit.o
 .group         0x00000000        0x8 ./src/lib/sysinit.o
 .group         0x00000000        0x8 ./src/lib/sysinit.o
 .group         0x00000000        0x8 ./src/lib/sysinit.o
 .group         0x00000000        0x8 ./src/lib/sysinit.o
 .group         0x00000000        0x8 ./src/lib/sysinit.o
 .debug_macro   0x00000000      0x862 ./src/lib/sysinit.o
 .debug_macro   0x00000000       0x16 ./src/lib/sysinit.o
 .debug_macro   0x00000000       0x76 ./src/lib/sysinit.o
 .debug_macro   0x00000000      0x25b ./src/lib/sysinit.o
 .debug_macro   0x00000000       0x28 ./src/lib/sysinit.o
 .debug_macro   0x00000000       0x40 ./src/lib/sysinit.o
 .group         0x00000000        0x8 ./src/lib/timer.o
 .group         0x00000000        0x8 ./src/lib/timer.o
 .group         0x00000000        0x8 ./src/lib/timer.o
 .group         0x00000000        0x8 ./src/lib/timer.o
 .group         0x00000000        0x8 ./src/lib/timer.o
 .group         0x00000000        0x8 ./src/lib/timer.o
 .group         0x00000000        0x8 ./src/lib/timer.o
 .group         0x00000000        0x8 ./src/lib/timer.o
 .group         0x00000000        0x8 ./src/lib/timer.o
 .group         0x00000000        0x8 ./src/lib/timer.o
 .group         0x00000000        0x8 ./src/lib/timer.o
 .group         0x00000000        0x8 ./src/lib/timer.o
 .group         0x00000000        0x8 ./src/lib/timer.o
 .debug_macro   0x00000000      0x862 ./src/lib/timer.o
 .debug_macro   0x00000000      0x1d8 ./src/lib/timer.o
 .debug_macro   0x00000000       0x16 ./src/lib/timer.o
 .debug_macro   0x00000000       0x16 ./src/lib/timer.o
 .debug_macro   0x00000000       0x1c ./src/lib/timer.o
 .debug_macro   0x00000000       0x76 ./src/lib/timer.o
 .debug_macro   0x00000000       0x16 ./src/lib/timer.o
 .debug_macro   0x00000000       0x28 ./src/lib/timer.o
 .debug_macro   0x00000000       0x40 ./src/lib/timer.o
 .debug_macro   0x00000000       0x10 ./src/lib/timer.o
 .debug_macro   0x00000000       0x40 ./src/lib/timer.o
 .debug_macro   0x00000000       0x10 ./src/lib/timer.o
 .group         0x00000000        0x8 ./src/lib/uspibind.o
 .group         0x00000000        0x8 ./src/lib/uspibind.o
 .group         0x00000000        0x8 ./src/lib/uspibind.o
 .group         0x00000000        0x8 ./src/lib/uspibind.o
 .group         0x00000000        0x8 ./src/lib/uspibind.o
 .group         0x00000000        0x8 ./src/lib/uspibind.o
 .group         0x00000000        0x8 ./src/lib/uspibind.o
 .group         0x00000000        0x8 ./src/lib/uspibind.o
 .group         0x00000000        0x8 ./src/lib/uspibind.o
 .group         0x00000000        0x8 ./src/lib/uspibind.o
 .group         0x00000000        0x8 ./src/lib/uspibind.o
 .group         0x00000000        0x8 ./src/lib/uspibind.o
 .group         0x00000000        0x8 ./src/lib/uspibind.o
 .debug_macro   0x00000000      0x862 ./src/lib/uspibind.o
 .debug_macro   0x00000000      0x1d8 ./src/lib/uspibind.o
 .debug_macro   0x00000000       0x16 ./src/lib/uspibind.o
 .debug_macro   0x00000000       0x16 ./src/lib/uspibind.o
 .debug_macro   0x00000000       0x1c ./src/lib/uspibind.o
 .debug_macro   0x00000000       0x76 ./src/lib/uspibind.o
 .debug_macro   0x00000000       0x16 ./src/lib/uspibind.o
 .debug_macro   0x00000000      0x25b ./src/lib/uspibind.o
 .debug_macro   0x00000000       0xa0 ./src/lib/uspibind.o
 .debug_macro   0x00000000       0x28 ./src/lib/uspibind.o
 .debug_macro   0x00000000       0x40 ./src/lib/uspibind.o
 .debug_macro   0x00000000       0x10 ./src/lib/uspibind.o
 .group         0x00000000        0x8 ./src/lib/uspienv.o
 .group         0x00000000        0x8 ./src/lib/uspienv.o
 .group         0x00000000        0x8 ./src/lib/uspienv.o
 .group         0x00000000        0x8 ./src/lib/uspienv.o
 .group         0x00000000        0x8 ./src/lib/uspienv.o
 .group         0x00000000        0x8 ./src/lib/uspienv.o
 .group         0x00000000        0x8 ./src/lib/uspienv.o
 .group         0x00000000        0x8 ./src/lib/uspienv.o
 .group         0x00000000        0x8 ./src/lib/uspienv.o
 .group         0x00000000        0x8 ./src/lib/uspienv.o
 .group         0x00000000        0x8 ./src/lib/uspienv.o
 .group         0x00000000        0x8 ./src/lib/uspienv.o
 .group         0x00000000        0x8 ./src/lib/uspienv.o
 .debug_macro   0x00000000      0x862 ./src/lib/uspienv.o
 .debug_macro   0x00000000       0x28 ./src/lib/uspienv.o
 .debug_macro   0x00000000       0x16 ./src/lib/uspienv.o
 .debug_macro   0x00000000       0xe9 ./src/lib/uspienv.o
 .debug_macro   0x00000000       0x76 ./src/lib/uspienv.o
 .debug_macro   0x00000000      0x25b ./src/lib/uspienv.o
 .debug_macro   0x00000000       0x40 ./src/lib/uspienv.o
 .debug_macro   0x00000000      0x1d8 ./src/lib/uspienv.o
 .debug_macro   0x00000000       0x1c ./src/lib/uspienv.o
 .debug_macro   0x00000000       0x1c ./src/lib/uspienv.o
 .debug_macro   0x00000000       0x16 ./src/lib/uspienv.o
 .debug_macro   0x00000000       0x22 ./src/lib/uspienv.o
 .debug_macro   0x00000000       0x16 ./src/lib/uspienv.o
 .group         0x00000000        0x8 ./src/lib/util.o
 .group         0x00000000        0x8 ./src/lib/util.o
 .debug_macro   0x00000000      0x862 ./src/lib/util.o
 .debug_macro   0x00000000       0x16 ./src/lib/util.o
 .group         0x00000000        0x8 ./src/FrameBuffer.o
 .group         0x00000000        0x8 ./src/FrameBuffer.o
 .group         0x00000000        0x8 ./src/FrameBuffer.o
 .group         0x00000000        0x8 ./src/FrameBuffer.o
 .group         0x00000000        0x8 ./src/FrameBuffer.o
 .group         0x00000000        0x8 ./src/FrameBuffer.o
 .group         0x00000000        0x8 ./src/FrameBuffer.o
 .debug_macro   0x00000000      0x862 ./src/FrameBuffer.o
 .debug_macro   0x00000000       0x16 ./src/FrameBuffer.o
 .group         0x00000000        0x8 ./src/GPIO.o
 .group         0x00000000        0x8 ./src/GPIO.o
 .group         0x00000000        0x8 ./src/GPIO.o
 .group         0x00000000        0x8 ./src/GPIO.o
 .group         0x00000000        0x8 ./src/GPIO.o
 .debug_macro   0x00000000      0x862 ./src/GPIO.o
 .debug_macro   0x00000000       0x16 ./src/GPIO.o
 .debug_macro   0x00000000       0x76 ./src/GPIO.o
 .group         0x00000000        0x8 ./src/Mailbox.o
 .group         0x00000000        0x8 ./src/Mailbox.o
 .group         0x00000000        0x8 ./src/Mailbox.o
 .group         0x00000000        0x8 ./src/Mailbox.o
 .group         0x00000000        0x8 ./src/Mailbox.o
 .group         0x00000000        0x8 ./src/Mailbox.o
 .debug_macro   0x00000000      0x862 ./src/Mailbox.o
 .debug_macro   0x00000000       0x16 ./src/Mailbox.o
 .debug_macro   0x00000000       0x76 ./src/Mailbox.o
 .debug_macro   0x00000000       0x4c ./src/Mailbox.o
 .debug_macro   0x00000000      0x1c0 ./src/Mailbox.o
 .group         0x00000000        0x8 ./src/SystemTimer.o
 .group         0x00000000        0x8 ./src/SystemTimer.o
 .group         0x00000000        0x8 ./src/SystemTimer.o
 .group         0x00000000        0x8 ./src/SystemTimer.o
 .debug_macro   0x00000000      0x862 ./src/SystemTimer.o
 .debug_macro   0x00000000       0x16 ./src/SystemTimer.o
 .debug_macro   0x00000000       0x4c ./src/SystemTimer.o
 .debug_macro   0x00000000       0x76 ./src/SystemTimer.o
 .group         0x00000000        0x8 ./src/armtimer.o
 .group         0x00000000        0x8 ./src/armtimer.o
 .group         0x00000000        0x8 ./src/armtimer.o
 .group         0x00000000        0x8 ./src/armtimer.o
 .group         0x00000000        0x8 ./src/armtimer.o
 .group         0x00000000        0x8 ./src/armtimer.o
 .debug_macro   0x00000000      0x862 ./src/armtimer.o
 .debug_macro   0x00000000       0x16 ./src/armtimer.o
 .debug_macro   0x00000000       0x76 ./src/armtimer.o
 .debug_macro   0x00000000       0x64 ./src/armtimer.o
 .group         0x00000000        0x8 ./src/bcm2835.o
 .group         0x00000000        0x8 ./src/bcm2835.o
 .debug_macro   0x00000000      0x862 ./src/bcm2835.o
 .group         0x00000000        0x8 ./src/devicenameservice.o
 .group         0x00000000        0x8 ./src/devicenameservice.o
 .group         0x00000000        0x8 ./src/devicenameservice.o
 .group         0x00000000        0x8 ./src/devicenameservice.o
 .group         0x00000000        0x8 ./src/devicenameservice.o
 .group         0x00000000        0x8 ./src/devicenameservice.o
 .debug_macro   0x00000000      0x862 ./src/devicenameservice.o
 .debug_macro   0x00000000       0x16 ./src/devicenameservice.o
 .debug_macro   0x00000000       0x40 ./src/devicenameservice.o
 .group         0x00000000        0x8 ./src/dwhcidevice.o
 .group         0x00000000        0x8 ./src/dwhcidevice.o
 .group         0x00000000        0x8 ./src/dwhcidevice.o
 .group         0x00000000        0x8 ./src/dwhcidevice.o
 .group         0x00000000        0x8 ./src/dwhcidevice.o
 .group         0x00000000        0x8 ./src/dwhcidevice.o
 .group         0x00000000        0x8 ./src/dwhcidevice.o
 .group         0x00000000        0x8 ./src/dwhcidevice.o
 .group         0x00000000        0x8 ./src/dwhcidevice.o
 .group         0x00000000        0x8 ./src/dwhcidevice.o
 .debug_macro   0x00000000      0x862 ./src/dwhcidevice.o
 .debug_macro   0x00000000       0x16 ./src/dwhcidevice.o
 .debug_macro   0x00000000       0x40 ./src/dwhcidevice.o
 .debug_macro   0x00000000       0x10 ./src/dwhcidevice.o
 .group         0x00000000        0x8 ./src/dwhciframeschednper.o
 .group         0x00000000        0x8 ./src/dwhciframeschednper.o
 .group         0x00000000        0x8 ./src/dwhciframeschednper.o
 .group         0x00000000        0x8 ./src/dwhciframeschednper.o
 .group         0x00000000        0x8 ./src/dwhciframeschednper.o
 .group         0x00000000        0x8 ./src/dwhciframeschednper.o
 .debug_macro   0x00000000      0x862 ./src/dwhciframeschednper.o
 .debug_macro   0x00000000       0x16 ./src/dwhciframeschednper.o
 .debug_macro   0x00000000       0x40 ./src/dwhciframeschednper.o
 .debug_macro   0x00000000       0x3a ./src/dwhciframeschednper.o
 .debug_macro   0x00000000      0x48f ./src/dwhciframeschednper.o
 .debug_macro   0x00000000       0x10 ./src/dwhciframeschednper.o
 .group         0x00000000        0x8 ./src/dwhciframeschednsplit.o
 .group         0x00000000        0x8 ./src/dwhciframeschednsplit.o
 .group         0x00000000        0x8 ./src/dwhciframeschednsplit.o
 .group         0x00000000        0x8 ./src/dwhciframeschednsplit.o
 .group         0x00000000        0x8 ./src/dwhciframeschednsplit.o
 .group         0x00000000        0x8 ./src/dwhciframeschednsplit.o
 .debug_macro   0x00000000      0x862 ./src/dwhciframeschednsplit.o
 .debug_macro   0x00000000       0x16 ./src/dwhciframeschednsplit.o
 .debug_macro   0x00000000       0x40 ./src/dwhciframeschednsplit.o
 .debug_macro   0x00000000       0x3a ./src/dwhciframeschednsplit.o
 .debug_macro   0x00000000      0x48f ./src/dwhciframeschednsplit.o
 .debug_macro   0x00000000       0x10 ./src/dwhciframeschednsplit.o
 .group         0x00000000        0x8 ./src/dwhciframeschedper.o
 .group         0x00000000        0x8 ./src/dwhciframeschedper.o
 .group         0x00000000        0x8 ./src/dwhciframeschedper.o
 .group         0x00000000        0x8 ./src/dwhciframeschedper.o
 .group         0x00000000        0x8 ./src/dwhciframeschedper.o
 .group         0x00000000        0x8 ./src/dwhciframeschedper.o
 .debug_macro   0x00000000      0x862 ./src/dwhciframeschedper.o
 .debug_macro   0x00000000       0x16 ./src/dwhciframeschedper.o
 .debug_macro   0x00000000       0x40 ./src/dwhciframeschedper.o
 .debug_macro   0x00000000       0x3a ./src/dwhciframeschedper.o
 .debug_macro   0x00000000      0x48f ./src/dwhciframeschedper.o
 .debug_macro   0x00000000       0x10 ./src/dwhciframeschedper.o
 .group         0x00000000        0x8 ./src/dwhciregister.o
 .group         0x00000000        0x8 ./src/dwhciregister.o
 .group         0x00000000        0x8 ./src/dwhciregister.o
 .group         0x00000000        0x8 ./src/dwhciregister.o
 .group         0x00000000        0x8 ./src/dwhciregister.o
 .group         0x00000000        0x8 ./src/dwhciregister.o
 .debug_macro   0x00000000      0x862 ./src/dwhciregister.o
 .debug_macro   0x00000000       0x40 ./src/dwhciregister.o
 .debug_macro   0x00000000       0x3a ./src/dwhciregister.o
 .debug_macro   0x00000000      0x48f ./src/dwhciregister.o
 .debug_macro   0x00000000       0x16 ./src/dwhciregister.o
 .debug_macro   0x00000000       0x10 ./src/dwhciregister.o
 .group         0x00000000        0x8 ./src/dwhcirootport.o
 .group         0x00000000        0x8 ./src/dwhcirootport.o
 .group         0x00000000        0x8 ./src/dwhcirootport.o
 .group         0x00000000        0x8 ./src/dwhcirootport.o
 .group         0x00000000        0x8 ./src/dwhcirootport.o
 .group         0x00000000        0x8 ./src/dwhcirootport.o
 .group         0x00000000        0x8 ./src/dwhcirootport.o
 .group         0x00000000        0x8 ./src/dwhcirootport.o
 .group         0x00000000        0x8 ./src/dwhcirootport.o
 .group         0x00000000        0x8 ./src/dwhcirootport.o
 .debug_macro   0x00000000      0x862 ./src/dwhcirootport.o
 .debug_macro   0x00000000       0x28 ./src/dwhcirootport.o
 .debug_macro   0x00000000       0x8e ./src/dwhcirootport.o
 .debug_macro   0x00000000       0x16 ./src/dwhcirootport.o
 .debug_macro   0x00000000       0x1c ./src/dwhcirootport.o
 .debug_macro   0x00000000       0x40 ./src/dwhcirootport.o
 .debug_macro   0x00000000       0x3a ./src/dwhcirootport.o
 .debug_macro   0x00000000      0x48f ./src/dwhcirootport.o
 .debug_macro   0x00000000       0x10 ./src/dwhcirootport.o
 .group         0x00000000        0x8 ./src/dwhcixferstagedata.o
 .group         0x00000000        0x8 ./src/dwhcixferstagedata.o
 .group         0x00000000        0x8 ./src/dwhcixferstagedata.o
 .group         0x00000000        0x8 ./src/dwhcixferstagedata.o
 .group         0x00000000        0x8 ./src/dwhcixferstagedata.o
 .group         0x00000000        0x8 ./src/dwhcixferstagedata.o
 .group         0x00000000        0x8 ./src/dwhcixferstagedata.o
 .group         0x00000000        0x8 ./src/dwhcixferstagedata.o
 .group         0x00000000        0x8 ./src/dwhcixferstagedata.o
 .debug_macro   0x00000000      0x862 ./src/dwhcixferstagedata.o
 .debug_macro   0x00000000       0x28 ./src/dwhcixferstagedata.o
 .debug_macro   0x00000000       0x8e ./src/dwhcixferstagedata.o
 .debug_macro   0x00000000       0x16 ./src/dwhcixferstagedata.o
 .debug_macro   0x00000000       0x1c ./src/dwhcixferstagedata.o
 .debug_macro   0x00000000       0x40 ./src/dwhcixferstagedata.o
 .debug_macro   0x00000000       0x3a ./src/dwhcixferstagedata.o
 .debug_macro   0x00000000      0x48f ./src/dwhcixferstagedata.o
 .debug_macro   0x00000000       0x10 ./src/dwhcixferstagedata.o
 .group         0x00000000        0x8 ./src/keymap.o
 .group         0x00000000        0x8 ./src/keymap.o
 .group         0x00000000        0x8 ./src/keymap.o
 .group         0x00000000        0x8 ./src/keymap.o
 .group         0x00000000        0x8 ./src/keymap.o
 .group         0x00000000        0x8 ./src/keymap.o
 .group         0x00000000        0x8 ./src/keymap.o
 .group         0x00000000        0x8 ./src/keymap.o
 .debug_macro   0x00000000      0x862 ./src/keymap.o
 .debug_macro   0x00000000       0x16 ./src/keymap.o
 .debug_macro   0x00000000       0x28 ./src/keymap.o
 .debug_macro   0x00000000       0x40 ./src/keymap.o
 .debug_macro   0x00000000       0x34 ./src/keymap.o
 .debug_macro   0x00000000       0x10 ./src/keymap.o
 .group         0x00000000        0x8 ./src/macaddress.o
 .group         0x00000000        0x8 ./src/macaddress.o
 .group         0x00000000        0x8 ./src/macaddress.o
 .group         0x00000000        0x8 ./src/macaddress.o
 .group         0x00000000        0x8 ./src/macaddress.o
 .group         0x00000000        0x8 ./src/macaddress.o
 .debug_macro   0x00000000      0x862 ./src/macaddress.o
 .debug_macro   0x00000000       0x1c ./src/macaddress.o
 .debug_macro   0x00000000       0x16 ./src/macaddress.o
 .debug_macro   0x00000000       0x40 ./src/macaddress.o
 .debug_macro   0x00000000       0x34 ./src/macaddress.o
 .debug_macro   0x00000000       0x10 ./src/macaddress.o
 .group         0x00000000        0x8 ./src/main.o
 .group         0x00000000        0x8 ./src/main.o
 .group         0x00000000        0x8 ./src/main.o
 .group         0x00000000        0x8 ./src/main.o
 .group         0x00000000        0x8 ./src/main.o
 .group         0x00000000        0x8 ./src/main.o
 .group         0x00000000        0x8 ./src/main.o
 .group         0x00000000        0x8 ./src/main.o
 .group         0x00000000        0x8 ./src/main.o
 .group         0x00000000        0x8 ./src/main.o
 .group         0x00000000        0x8 ./src/main.o
 .group         0x00000000        0x8 ./src/main.o
 .group         0x00000000        0x8 ./src/main.o
 .group         0x00000000        0x8 ./src/main.o
 .group         0x00000000        0x8 ./src/main.o
 .group         0x00000000        0x8 ./src/main.o
 .group         0x00000000        0x8 ./src/main.o
 .group         0x00000000        0x8 ./src/main.o
 .group         0x00000000        0x8 ./src/main.o
 .group         0x00000000        0x8 ./src/main.o
 .group         0x00000000        0x8 ./src/main.o
 .group         0x00000000        0x8 ./src/main.o
 .debug_macro   0x00000000      0x862 ./src/main.o
 .debug_macro   0x00000000       0x16 ./src/main.o
 .debug_macro   0x00000000      0x1c0 ./src/main.o
 .debug_macro   0x00000000       0x4c ./src/main.o
 .debug_macro   0x00000000       0x64 ./src/main.o
 .debug_macro   0x00000000       0x28 ./src/main.o
 .debug_macro   0x00000000       0x76 ./src/main.o
 .debug_macro   0x00000000       0x22 ./src/main.o
 .group         0x00000000        0x8 ./src/periph.o
 .group         0x00000000        0x8 ./src/periph.o
 .group         0x00000000        0x8 ./src/periph.o
 .group         0x00000000        0x8 ./src/periph.o
 .debug_macro   0x00000000      0x862 ./src/periph.o
 .debug_macro   0x00000000       0x16 ./src/periph.o
 .debug_macro   0x00000000      0x1c0 ./src/periph.o
 .group         0x00000000        0x8 ./src/raspi.o
 .group         0x00000000        0x8 ./src/raspi.o
 .group         0x00000000        0x8 ./src/raspi.o
 .debug_macro   0x00000000      0x862 ./src/raspi.o
 .debug_macro   0x00000000       0x16 ./src/raspi.o
 .debug_macro   0x00000000       0x76 ./src/raspi.o
 .group         0x00000000        0x8 ./src/smsc951x.o
 .group         0x00000000        0x8 ./src/smsc951x.o
 .group         0x00000000        0x8 ./src/smsc951x.o
 .group         0x00000000        0x8 ./src/smsc951x.o
 .group         0x00000000        0x8 ./src/smsc951x.o
 .group         0x00000000        0x8 ./src/smsc951x.o
 .group         0x00000000        0x8 ./src/smsc951x.o
 .group         0x00000000        0x8 ./src/smsc951x.o
 .group         0x00000000        0x8 ./src/smsc951x.o
 .group         0x00000000        0x8 ./src/smsc951x.o
 .group         0x00000000        0x8 ./src/smsc951x.o
 .group         0x00000000        0x8 ./src/smsc951x.o
 .debug_macro   0x00000000      0x862 ./src/smsc951x.o
 .debug_macro   0x00000000       0x28 ./src/smsc951x.o
 .debug_macro   0x00000000       0x8e ./src/smsc951x.o
 .debug_macro   0x00000000       0x16 ./src/smsc951x.o
 .debug_macro   0x00000000       0x1c ./src/smsc951x.o
 .debug_macro   0x00000000       0x40 ./src/smsc951x.o
 .debug_macro   0x00000000       0x3a ./src/smsc951x.o
 .debug_macro   0x00000000      0x48f ./src/smsc951x.o
 .debug_macro   0x00000000       0x16 ./src/smsc951x.o
 .debug_macro   0x00000000       0x10 ./src/smsc951x.o
 .group         0x00000000        0x8 ./src/synchronize.o
 .group         0x00000000        0x8 ./src/synchronize.o
 .group         0x00000000        0x8 ./src/synchronize.o
 .group         0x00000000        0x8 ./src/synchronize.o
 .group         0x00000000        0x8 ./src/synchronize.o
 .debug_macro   0x00000000      0x862 ./src/synchronize.o
 .debug_macro   0x00000000       0x28 ./src/synchronize.o
 .debug_macro   0x00000000       0x16 ./src/synchronize.o
 .debug_macro   0x00000000       0x10 ./src/synchronize.o
 .group         0x00000000        0x8 ./src/usbconfigparser.o
 .group         0x00000000        0x8 ./src/usbconfigparser.o
 .group         0x00000000        0x8 ./src/usbconfigparser.o
 .group         0x00000000        0x8 ./src/usbconfigparser.o
 .group         0x00000000        0x8 ./src/usbconfigparser.o
 .group         0x00000000        0x8 ./src/usbconfigparser.o
 .debug_macro   0x00000000      0x862 ./src/usbconfigparser.o
 .debug_macro   0x00000000       0x28 ./src/usbconfigparser.o
 .debug_macro   0x00000000       0x8e ./src/usbconfigparser.o
 .debug_macro   0x00000000       0x16 ./src/usbconfigparser.o
 .debug_macro   0x00000000       0x40 ./src/usbconfigparser.o
 .debug_macro   0x00000000       0x10 ./src/usbconfigparser.o
 .group         0x00000000        0x8 ./src/usbdevice.o
 .group         0x00000000        0x8 ./src/usbdevice.o
 .group         0x00000000        0x8 ./src/usbdevice.o
 .group         0x00000000        0x8 ./src/usbdevice.o
 .group         0x00000000        0x8 ./src/usbdevice.o
 .group         0x00000000        0x8 ./src/usbdevice.o
 .group         0x00000000        0x8 ./src/usbdevice.o
 .group         0x00000000        0x8 ./src/usbdevice.o
 .group         0x00000000        0x8 ./src/usbdevice.o
 .group         0x00000000        0x8 ./src/usbdevice.o
 .debug_macro   0x00000000      0x862 ./src/usbdevice.o
 .debug_macro   0x00000000       0x28 ./src/usbdevice.o
 .debug_macro   0x00000000       0x8e ./src/usbdevice.o
 .debug_macro   0x00000000       0x16 ./src/usbdevice.o
 .debug_macro   0x00000000       0x1c ./src/usbdevice.o
 .debug_macro   0x00000000       0x40 ./src/usbdevice.o
 .debug_macro   0x00000000       0x3a ./src/usbdevice.o
 .debug_macro   0x00000000      0x48f ./src/usbdevice.o
 .debug_macro   0x00000000       0x3a ./src/usbdevice.o
 .debug_macro   0x00000000       0x10 ./src/usbdevice.o
 .group         0x00000000        0x8 ./src/usbdevicefactory.o
 .group         0x00000000        0x8 ./src/usbdevicefactory.o
 .group         0x00000000        0x8 ./src/usbdevicefactory.o
 .group         0x00000000        0x8 ./src/usbdevicefactory.o
 .group         0x00000000        0x8 ./src/usbdevicefactory.o
 .group         0x00000000        0x8 ./src/usbdevicefactory.o
 .group         0x00000000        0x8 ./src/usbdevicefactory.o
 .group         0x00000000        0x8 ./src/usbdevicefactory.o
 .group         0x00000000        0x8 ./src/usbdevicefactory.o
 .group         0x00000000        0x8 ./src/usbdevicefactory.o
 .group         0x00000000        0x8 ./src/usbdevicefactory.o
 .group         0x00000000        0x8 ./src/usbdevicefactory.o
 .group         0x00000000        0x8 ./src/usbdevicefactory.o
 .group         0x00000000        0x8 ./src/usbdevicefactory.o
 .group         0x00000000        0x8 ./src/usbdevicefactory.o
 .group         0x00000000        0x8 ./src/usbdevicefactory.o
 .debug_macro   0x00000000      0x862 ./src/usbdevicefactory.o
 .debug_macro   0x00000000       0x28 ./src/usbdevicefactory.o
 .debug_macro   0x00000000       0x8e ./src/usbdevicefactory.o
 .debug_macro   0x00000000       0x16 ./src/usbdevicefactory.o
 .debug_macro   0x00000000       0x1c ./src/usbdevicefactory.o
 .debug_macro   0x00000000       0x40 ./src/usbdevicefactory.o
 .debug_macro   0x00000000       0x10 ./src/usbdevicefactory.o
 .debug_macro   0x00000000       0x88 ./src/usbdevicefactory.o
 .debug_macro   0x00000000       0x3a ./src/usbdevicefactory.o
 .debug_macro   0x00000000      0x48f ./src/usbdevicefactory.o
 .debug_macro   0x00000000       0x10 ./src/usbdevicefactory.o
 .group         0x00000000        0x8 ./src/usbendpoint.o
 .group         0x00000000        0x8 ./src/usbendpoint.o
 .group         0x00000000        0x8 ./src/usbendpoint.o
 .group         0x00000000        0x8 ./src/usbendpoint.o
 .group         0x00000000        0x8 ./src/usbendpoint.o
 .group         0x00000000        0x8 ./src/usbendpoint.o
 .debug_macro   0x00000000      0x862 ./src/usbendpoint.o
 .debug_macro   0x00000000       0x28 ./src/usbendpoint.o
 .debug_macro   0x00000000       0x8e ./src/usbendpoint.o
 .debug_macro   0x00000000       0x16 ./src/usbendpoint.o
 .debug_macro   0x00000000       0x1c ./src/usbendpoint.o
 .debug_macro   0x00000000       0x10 ./src/usbendpoint.o
 .group         0x00000000        0x8 ./src/usbgamepad.o
 .group         0x00000000        0x8 ./src/usbgamepad.o
 .group         0x00000000        0x8 ./src/usbgamepad.o
 .group         0x00000000        0x8 ./src/usbgamepad.o
 .group         0x00000000        0x8 ./src/usbgamepad.o
 .group         0x00000000        0x8 ./src/usbgamepad.o
 .group         0x00000000        0x8 ./src/usbgamepad.o
 .group         0x00000000        0x8 ./src/usbgamepad.o
 .group         0x00000000        0x8 ./src/usbgamepad.o
 .group         0x00000000        0x8 ./src/usbgamepad.o
 .group         0x00000000        0x8 ./src/usbgamepad.o
 .group         0x00000000        0x8 ./src/usbgamepad.o
 .group         0x00000000        0x8 ./src/usbgamepad.o
 .debug_macro   0x00000000      0x862 ./src/usbgamepad.o
 .debug_macro   0x00000000       0x28 ./src/usbgamepad.o
 .debug_macro   0x00000000       0x8e ./src/usbgamepad.o
 .debug_macro   0x00000000       0x16 ./src/usbgamepad.o
 .debug_macro   0x00000000       0x1c ./src/usbgamepad.o
 .debug_macro   0x00000000       0xac ./src/usbgamepad.o
 .debug_macro   0x00000000       0xba ./src/usbgamepad.o
 .debug_macro   0x00000000       0x40 ./src/usbgamepad.o
 .debug_macro   0x00000000       0x3a ./src/usbgamepad.o
 .debug_macro   0x00000000      0x48f ./src/usbgamepad.o
 .debug_macro   0x00000000       0x16 ./src/usbgamepad.o
 .debug_macro   0x00000000       0x10 ./src/usbgamepad.o
 .debug_macro   0x00000000       0x3a ./src/usbgamepad.o
 .group         0x00000000        0x8 ./src/usbkeyboard.o
 .group         0x00000000        0x8 ./src/usbkeyboard.o
 .group         0x00000000        0x8 ./src/usbkeyboard.o
 .group         0x00000000        0x8 ./src/usbkeyboard.o
 .group         0x00000000        0x8 ./src/usbkeyboard.o
 .group         0x00000000        0x8 ./src/usbkeyboard.o
 .group         0x00000000        0x8 ./src/usbkeyboard.o
 .group         0x00000000        0x8 ./src/usbkeyboard.o
 .group         0x00000000        0x8 ./src/usbkeyboard.o
 .group         0x00000000        0x8 ./src/usbkeyboard.o
 .group         0x00000000        0x8 ./src/usbkeyboard.o
 .group         0x00000000        0x8 ./src/usbkeyboard.o
 .debug_macro   0x00000000      0x862 ./src/usbkeyboard.o
 .debug_macro   0x00000000       0x28 ./src/usbkeyboard.o
 .debug_macro   0x00000000       0x8e ./src/usbkeyboard.o
 .debug_macro   0x00000000       0x16 ./src/usbkeyboard.o
 .debug_macro   0x00000000       0x1c ./src/usbkeyboard.o
 .debug_macro   0x00000000       0x22 ./src/usbkeyboard.o
 .debug_macro   0x00000000       0xac ./src/usbkeyboard.o
 .debug_macro   0x00000000       0x40 ./src/usbkeyboard.o
 .debug_macro   0x00000000       0x3a ./src/usbkeyboard.o
 .debug_macro   0x00000000      0x48f ./src/usbkeyboard.o
 .debug_macro   0x00000000       0x16 ./src/usbkeyboard.o
 .debug_macro   0x00000000       0x10 ./src/usbkeyboard.o
 .group         0x00000000        0x8 ./src/usbmassdevice.o
 .group         0x00000000        0x8 ./src/usbmassdevice.o
 .group         0x00000000        0x8 ./src/usbmassdevice.o
 .group         0x00000000        0x8 ./src/usbmassdevice.o
 .group         0x00000000        0x8 ./src/usbmassdevice.o
 .group         0x00000000        0x8 ./src/usbmassdevice.o
 .group         0x00000000        0x8 ./src/usbmassdevice.o
 .group         0x00000000        0x8 ./src/usbmassdevice.o
 .group         0x00000000        0x8 ./src/usbmassdevice.o
 .group         0x00000000        0x8 ./src/usbmassdevice.o
 .group         0x00000000        0x8 ./src/usbmassdevice.o
 .group         0x00000000        0x8 ./src/usbmassdevice.o
 .debug_macro   0x00000000      0x862 ./src/usbmassdevice.o
 .debug_macro   0x00000000       0x28 ./src/usbmassdevice.o
 .debug_macro   0x00000000       0x8e ./src/usbmassdevice.o
 .debug_macro   0x00000000       0x16 ./src/usbmassdevice.o
 .debug_macro   0x00000000       0x1c ./src/usbmassdevice.o
 .debug_macro   0x00000000       0x40 ./src/usbmassdevice.o
 .debug_macro   0x00000000       0x3a ./src/usbmassdevice.o
 .debug_macro   0x00000000      0x48f ./src/usbmassdevice.o
 .debug_macro   0x00000000       0x16 ./src/usbmassdevice.o
 .debug_macro   0x00000000       0x3a ./src/usbmassdevice.o
 .debug_macro   0x00000000       0x10 ./src/usbmassdevice.o
 .group         0x00000000        0x8 ./src/usbmouse.o
 .group         0x00000000        0x8 ./src/usbmouse.o
 .group         0x00000000        0x8 ./src/usbmouse.o
 .group         0x00000000        0x8 ./src/usbmouse.o
 .group         0x00000000        0x8 ./src/usbmouse.o
 .group         0x00000000        0x8 ./src/usbmouse.o
 .group         0x00000000        0x8 ./src/usbmouse.o
 .group         0x00000000        0x8 ./src/usbmouse.o
 .group         0x00000000        0x8 ./src/usbmouse.o
 .group         0x00000000        0x8 ./src/usbmouse.o
 .group         0x00000000        0x8 ./src/usbmouse.o
 .group         0x00000000        0x8 ./src/usbmouse.o
 .debug_macro   0x00000000      0x862 ./src/usbmouse.o
 .debug_macro   0x00000000       0x28 ./src/usbmouse.o
 .debug_macro   0x00000000       0x8e ./src/usbmouse.o
 .debug_macro   0x00000000       0x16 ./src/usbmouse.o
 .debug_macro   0x00000000       0x1c ./src/usbmouse.o
 .debug_macro   0x00000000       0xac ./src/usbmouse.o
 .debug_macro   0x00000000       0x40 ./src/usbmouse.o
 .debug_macro   0x00000000       0x3a ./src/usbmouse.o
 .debug_macro   0x00000000      0x48f ./src/usbmouse.o
 .debug_macro   0x00000000       0x16 ./src/usbmouse.o
 .debug_macro   0x00000000       0x3a ./src/usbmouse.o
 .debug_macro   0x00000000       0x10 ./src/usbmouse.o
 .group         0x00000000        0x8 ./src/usbrequest.o
 .group         0x00000000        0x8 ./src/usbrequest.o
 .group         0x00000000        0x8 ./src/usbrequest.o
 .group         0x00000000        0x8 ./src/usbrequest.o
 .group         0x00000000        0x8 ./src/usbrequest.o
 .group         0x00000000        0x8 ./src/usbrequest.o
 .debug_macro   0x00000000      0x862 ./src/usbrequest.o
 .debug_macro   0x00000000       0x28 ./src/usbrequest.o
 .debug_macro   0x00000000       0x8e ./src/usbrequest.o
 .debug_macro   0x00000000       0x16 ./src/usbrequest.o
 .debug_macro   0x00000000       0x1c ./src/usbrequest.o
 .debug_macro   0x00000000       0x10 ./src/usbrequest.o
 .group         0x00000000        0x8 ./src/usbstandardhub.o
 .group         0x00000000        0x8 ./src/usbstandardhub.o
 .group         0x00000000        0x8 ./src/usbstandardhub.o
 .group         0x00000000        0x8 ./src/usbstandardhub.o
 .group         0x00000000        0x8 ./src/usbstandardhub.o
 .group         0x00000000        0x8 ./src/usbstandardhub.o
 .group         0x00000000        0x8 ./src/usbstandardhub.o
 .group         0x00000000        0x8 ./src/usbstandardhub.o
 .group         0x00000000        0x8 ./src/usbstandardhub.o
 .group         0x00000000        0x8 ./src/usbstandardhub.o
 .debug_macro   0x00000000      0x862 ./src/usbstandardhub.o
 .debug_macro   0x00000000       0x28 ./src/usbstandardhub.o
 .debug_macro   0x00000000       0x8e ./src/usbstandardhub.o
 .debug_macro   0x00000000       0x88 ./src/usbstandardhub.o
 .debug_macro   0x00000000       0x16 ./src/usbstandardhub.o
 .debug_macro   0x00000000       0x1c ./src/usbstandardhub.o
 .debug_macro   0x00000000       0x40 ./src/usbstandardhub.o
 .debug_macro   0x00000000       0x3a ./src/usbstandardhub.o
 .debug_macro   0x00000000      0x48f ./src/usbstandardhub.o
 .debug_macro   0x00000000       0x10 ./src/usbstandardhub.o
 .group         0x00000000        0x8 ./src/usbstring.o
 .group         0x00000000        0x8 ./src/usbstring.o
 .group         0x00000000        0x8 ./src/usbstring.o
 .group         0x00000000        0x8 ./src/usbstring.o
 .group         0x00000000        0x8 ./src/usbstring.o
 .group         0x00000000        0x8 ./src/usbstring.o
 .group         0x00000000        0x8 ./src/usbstring.o
 .group         0x00000000        0x8 ./src/usbstring.o
 .group         0x00000000        0x8 ./src/usbstring.o
 .group         0x00000000        0x8 ./src/usbstring.o
 .debug_macro   0x00000000      0x862 ./src/usbstring.o
 .debug_macro   0x00000000       0x28 ./src/usbstring.o
 .debug_macro   0x00000000       0x8e ./src/usbstring.o
 .debug_macro   0x00000000       0x1c ./src/usbstring.o
 .debug_macro   0x00000000       0x16 ./src/usbstring.o
 .debug_macro   0x00000000       0x40 ./src/usbstring.o
 .debug_macro   0x00000000       0x3a ./src/usbstring.o
 .debug_macro   0x00000000      0x48f ./src/usbstring.o
 .debug_macro   0x00000000       0x3a ./src/usbstring.o
 .debug_macro   0x00000000       0x10 ./src/usbstring.o
 .group         0x00000000        0x8 ./src/uspilibrary.o
 .group         0x00000000        0x8 ./src/uspilibrary.o
 .group         0x00000000        0x8 ./src/uspilibrary.o
 .group         0x00000000        0x8 ./src/uspilibrary.o
 .group         0x00000000        0x8 ./src/uspilibrary.o
 .group         0x00000000        0x8 ./src/uspilibrary.o
 .group         0x00000000        0x8 ./src/uspilibrary.o
 .group         0x00000000        0x8 ./src/uspilibrary.o
 .group         0x00000000        0x8 ./src/uspilibrary.o
 .group         0x00000000        0x8 ./src/uspilibrary.o
 .group         0x00000000        0x8 ./src/uspilibrary.o
 .group         0x00000000        0x8 ./src/uspilibrary.o
 .group         0x00000000        0x8 ./src/uspilibrary.o
 .group         0x00000000        0x8 ./src/uspilibrary.o
 .group         0x00000000        0x8 ./src/uspilibrary.o
 .group         0x00000000        0x8 ./src/uspilibrary.o
 .group         0x00000000        0x8 ./src/uspilibrary.o
 .debug_macro   0x00000000      0x862 ./src/uspilibrary.o
 .debug_macro   0x00000000       0x16 ./src/uspilibrary.o
 .debug_macro   0x00000000       0x28 ./src/uspilibrary.o
 .debug_macro   0x00000000       0x8e ./src/uspilibrary.o
 .debug_macro   0x00000000       0x16 ./src/uspilibrary.o
 .debug_macro   0x00000000       0x1c ./src/uspilibrary.o
 .debug_macro   0x00000000       0x40 ./src/uspilibrary.o
 .debug_macro   0x00000000       0x3a ./src/uspilibrary.o
 .debug_macro   0x00000000      0x48f ./src/uspilibrary.o
 .debug_macro   0x00000000       0x22 ./src/uspilibrary.o
 .debug_macro   0x00000000       0x10 ./src/uspilibrary.o
 .debug_macro   0x00000000       0xac ./src/uspilibrary.o
 .debug_macro   0x00000000       0xba ./src/uspilibrary.o
 .debug_macro   0x00000000       0x22 ./src/uspilibrary.o
 .debug_macro   0x00000000       0x10 ./src/uspilibrary.o
 .debug_macro   0x00000000       0x3a ./src/uspilibrary.o
 .debug_macro   0x00000000       0x10 ./src/uspilibrary.o
 .group         0x00000000        0x8 ./src/util.o
 .group         0x00000000        0x8 ./src/util.o
 .group         0x00000000        0x8 ./src/util.o
 .group         0x00000000        0x8 ./src/util.o
 .debug_macro   0x00000000      0x862 ./src/util.o
 .debug_macro   0x00000000       0x40 ./src/util.o
 .debug_macro   0x00000000       0x16 ./src/util.o
 .debug_macro   0x00000000       0x34 ./src/util.o

Memory Configuration

Name             Origin             Length             Attributes
*default*        0x00000000         0xffffffff

Linker script and memory map

START GROUP
LOAD c:/program files (x86)/gnu tools arm embedded/4.9 2015q1/bin/../lib/gcc/arm-none-eabi/4.9.3\libgcc.a
LOAD c:/program files (x86)/gnu tools arm embedded/4.9 2015q1/bin/../lib/gcc/arm-none-eabi/4.9.3/../../../../arm-none-eabi/lib\libc.a
LOAD c:/program files (x86)/gnu tools arm embedded/4.9 2015q1/bin/../lib/gcc/arm-none-eabi/4.9.3/../../../../arm-none-eabi/lib\librdimon.a
END GROUP
LOAD ./src/lib/alloc.o
LOAD ./src/lib/assert.o
LOAD ./src/lib/bcmframebuffer.o
LOAD ./src/lib/bcmmailbox.o
LOAD ./src/lib/bcmpropertytags.o
LOAD ./src/lib/chargenerator.o
LOAD ./src/lib/debug.o
LOAD ./src/lib/exceptionhandler.o
LOAD ./src/lib/interrupt.o
LOAD ./src/lib/libhelper.o
LOAD ./src/lib/logger.o
LOAD ./src/lib/memio.o
LOAD ./src/lib/memory.o
LOAD ./src/lib/pagetable.o
LOAD ./src/lib/screen.o
LOAD ./src/lib/string.o
LOAD ./src/lib/synchronize.o
LOAD ./src/lib/sysinit.o
LOAD ./src/lib/timer.o
LOAD ./src/lib/uspibind.o
LOAD ./src/lib/uspienv.o
LOAD ./src/lib/util.o
LOAD ./src/Asetup.o
LOAD ./src/Avectors.o
LOAD ./src/FrameBuffer.o
LOAD ./src/GPIO.o
LOAD ./src/Mailbox.o
LOAD ./src/SystemTimer.o
LOAD ./src/armtimer.o
LOAD ./src/bcm2835.o
LOAD ./src/devicenameservice.o
LOAD ./src/dwhcidevice.o
LOAD ./src/dwhciframeschednper.o
LOAD ./src/dwhciframeschednsplit.o
LOAD ./src/dwhciframeschedper.o
LOAD ./src/dwhciregister.o
LOAD ./src/dwhcirootport.o
LOAD ./src/dwhcixferstagedata.o
LOAD ./src/keymap.o
LOAD ./src/macaddress.o
LOAD ./src/main.o
LOAD ./src/periph.o
LOAD ./src/raspi.o
LOAD ./src/smsc951x.o
LOAD ./src/synchronize.o
LOAD ./src/usbconfigparser.o
LOAD ./src/usbdevice.o
LOAD ./src/usbdevicefactory.o
LOAD ./src/usbendpoint.o
LOAD ./src/usbgamepad.o
LOAD ./src/usbkeyboard.o
LOAD ./src/usbmassdevice.o
LOAD ./src/usbmouse.o
LOAD ./src/usbrequest.o
LOAD ./src/usbstandardhub.o
LOAD ./src/usbstring.o
LOAD ./src/uspilibrary.o
LOAD ./src/util.o
LOAD c:/program files (x86)/gnu tools arm embedded/4.9 2015q1/bin/../lib/gcc/arm-none-eabi/4.9.3/../../../../arm-none-eabi/lib\libstdc++.a
LOAD c:/program files (x86)/gnu tools arm embedded/4.9 2015q1/bin/../lib/gcc/arm-none-eabi/4.9.3/../../../../arm-none-eabi/lib\libm.a
LOAD c:/program files (x86)/gnu tools arm embedded/4.9 2015q1/bin/../lib/gcc/arm-none-eabi/4.9.3/../../../../arm-none-eabi/lib\libc.a
START GROUP
LOAD c:/program files (x86)/gnu tools arm embedded/4.9 2015q1/bin/../lib/gcc/arm-none-eabi/4.9.3\libgcc.a
LOAD c:/program files (x86)/gnu tools arm embedded/4.9 2015q1/bin/../lib/gcc/arm-none-eabi/4.9.3/../../../../arm-none-eabi/lib\libg.a
LOAD c:/program files (x86)/gnu tools arm embedded/4.9 2015q1/bin/../lib/gcc/arm-none-eabi/4.9.3/../../../../arm-none-eabi/lib\libc.a
END GROUP
START GROUP
LOAD c:/program files (x86)/gnu tools arm embedded/4.9 2015q1/bin/../lib/gcc/arm-none-eabi/4.9.3\libgcc.a
LOAD c:/program files (x86)/gnu tools arm embedded/4.9 2015q1/bin/../lib/gcc/arm-none-eabi/4.9.3/../../../../arm-none-eabi/lib\libc.a
LOAD c:/program files (x86)/gnu tools arm embedded/4.9 2015q1/bin/../lib/gcc/arm-none-eabi/4.9.3/../../../../arm-none-eabi/lib\librdimon.a
END GROUP
                0x00010000                . = 0x10000
                0x00010000                __start = .
                0x00010000                __text_start = .

.text           0x00010000      0xa24
 *(.text)
 .text          0x00010000        0x0 ./src/lib/alloc.o
 .text          0x00010000        0x0 ./src/lib/assert.o
 .text          0x00010000        0x0 ./src/lib/bcmframebuffer.o
 .text          0x00010000        0x0 ./src/lib/bcmmailbox.o
 .text          0x00010000        0x0 ./src/lib/bcmpropertytags.o
 .text          0x00010000        0x0 ./src/lib/chargenerator.o
 .text          0x00010000        0x0 ./src/lib/debug.o
 .text          0x00010000        0x0 ./src/lib/exceptionhandler.o
 .text          0x00010000        0x0 ./src/lib/interrupt.o
 .text          0x00010000        0x0 ./src/lib/libhelper.o
 .text          0x00010000        0x0 ./src/lib/logger.o
 .text          0x00010000        0x0 ./src/lib/memio.o
 .text          0x00010000        0x0 ./src/lib/memory.o
 .text          0x00010000        0x0 ./src/lib/pagetable.o
 .text          0x00010000        0x0 ./src/lib/screen.o
 .text          0x00010000        0x0 ./src/lib/string.o
 .text          0x00010000        0x0 ./src/lib/synchronize.o
 .text          0x00010000        0x0 ./src/lib/sysinit.o
 .text          0x00010000        0x0 ./src/lib/timer.o
 .text          0x00010000        0x0 ./src/lib/uspibind.o
 .text          0x00010000        0x0 ./src/lib/uspienv.o
 .text          0x00010000        0x0 ./src/lib/util.o
 .text          0x00010000      0x620 ./src/Asetup.o
                0x00010000                asm_start
                0x00010078                MemoryBarrier
                0x0001008c                dummy
                0x00010590                exc_stack
                0x00010590                supervisor_sp
                0x00010594                _enable_interrupts
                0x000105a8                DelayLoop
                0x000105b4                _start
                0x000105f0                _start_secondary
                0x000105fc                memcpyblk
 .text          0x00010620       0x2c ./src/Avectors.o
                0x00010620                PUT32
                0x00010628                PUT16
                0x00010630                PUT8
                0x00010638                GET32
                0x00010640                GETPC
                0x00010648                BRANCHTO
 .text          0x0001064c        0x0 ./src/FrameBuffer.o
 .text          0x0001064c        0x0 ./src/GPIO.o
 .text          0x0001064c        0x0 ./src/Mailbox.o
 .text          0x0001064c        0x0 ./src/SystemTimer.o
 .text          0x0001064c        0x0 ./src/armtimer.o
 .text          0x0001064c        0x0 ./src/bcm2835.o
 .text          0x0001064c        0x0 ./src/devicenameservice.o
 .text          0x0001064c        0x0 ./src/dwhcidevice.o
 .text          0x0001064c        0x0 ./src/dwhciframeschednper.o
 .text          0x0001064c        0x0 ./src/dwhciframeschednsplit.o
 .text          0x0001064c        0x0 ./src/dwhciframeschedper.o
 .text          0x0001064c        0x0 ./src/dwhciregister.o
 .text          0x0001064c        0x0 ./src/dwhcirootport.o
 .text          0x0001064c        0x0 ./src/dwhcixferstagedata.o
 .text          0x0001064c        0x0 ./src/keymap.o
 .text          0x0001064c        0x0 ./src/macaddress.o
 .text          0x0001064c        0x0 ./src/main.o
 .text          0x0001064c        0x0 ./src/periph.o
 .text          0x0001064c        0x0 ./src/raspi.o
 .text          0x0001064c        0x0 ./src/smsc951x.o
 .text          0x0001064c        0x0 ./src/synchronize.o
 .text          0x0001064c        0x0 ./src/usbconfigparser.o
 .text          0x0001064c        0x0 ./src/usbdevice.o
 .text          0x0001064c        0x0 ./src/usbdevicefactory.o
 .text          0x0001064c        0x0 ./src/usbendpoint.o
 .text          0x0001064c        0x0 ./src/usbgamepad.o
 .text          0x0001064c        0x0 ./src/usbkeyboard.o
 .text          0x0001064c        0x0 ./src/usbmassdevice.o
 .text          0x0001064c        0x0 ./src/usbmouse.o
 .text          0x0001064c        0x0 ./src/usbrequest.o
 .text          0x0001064c        0x0 ./src/usbstandardhub.o
 .text          0x0001064c        0x0 ./src/usbstring.o
 .text          0x0001064c        0x0 ./src/uspilibrary.o
 .text          0x0001064c        0x0 ./src/util.o
 .text          0x0001064c        0x0 c:/program files (x86)/gnu tools arm embedded/4.9 2015q1/bin/../lib/gcc/arm-none-eabi/4.9.3/../../../../arm-none-eabi/lib\libc.a(lib_a-rand.o)
 .text          0x0001064c        0x0 c:/program files (x86)/gnu tools arm embedded/4.9 2015q1/bin/../lib/gcc/arm-none-eabi/4.9.3/../../../../arm-none-eabi/lib\libc.a(lib_a-impure.o)
 .text          0x0001064c       0x48 c:/program files (x86)/gnu tools arm embedded/4.9 2015q1/bin/../lib/gcc/arm-none-eabi/4.9.3\libgcc.a(_aeabi_ldivmod.o)
                0x0001064c                __aeabi_ldivmod
 .text          0x00010694       0x84 c:/program files (x86)/gnu tools arm embedded/4.9 2015q1/bin/../lib/gcc/arm-none-eabi/4.9.3\libgcc.a(bpabi.o)
                0x00010694                __gnu_ldivmod_helper
                0x000106d8                __gnu_uldivmod_helper
 .text          0x00010718        0x4 c:/program files (x86)/gnu tools arm embedded/4.9 2015q1/bin/../lib/gcc/arm-none-eabi/4.9.3\libgcc.a(_dvmd_tls.o)
                0x00010718                __aeabi_idiv0
                0x00010718                __aeabi_ldiv0
 .text          0x0001071c      0x178 c:/program files (x86)/gnu tools arm embedded/4.9 2015q1/bin/../lib/gcc/arm-none-eabi/4.9.3\libgcc.a(_divdi3.o)
                0x0001071c                __divdi3
 .text          0x00010894      0x120 c:/program files (x86)/gnu tools arm embedded/4.9 2015q1/bin/../lib/gcc/arm-none-eabi/4.9.3\libgcc.a(_udivdi3.o)
                0x00010894                __udivdi3
 .text          0x000109b4       0x28 c:/program files (x86)/gnu tools arm embedded/4.9 2015q1/bin/../lib/gcc/arm-none-eabi/4.9.3\libgcc.a(_clzdi2.o)
                0x000109b4                __clzdi2
 .text          0x000109dc       0x48 c:/program files (x86)/gnu tools arm embedded/4.9 2015q1/bin/../lib/gcc/arm-none-eabi/4.9.3\libgcc.a(_clzsi2.o)
                0x000109dc                __clzsi2

.glue_7         0x00010a24        0x0
 .glue_7        0x00000000        0x0 linker stubs

.glue_7t        0x00010a24        0x0
 .glue_7t       0x00000000        0x0 linker stubs

.vfp11_veneer   0x00010a24        0x0
 .vfp11_veneer  0x00000000        0x0 linker stubs

.v4_bx          0x00010a24        0x0
 .v4_bx         0x00000000        0x0 linker stubs

.text.mem_init  0x00010a24       0x60
 .text.mem_init
                0x00010a24       0x60 ./src/lib/alloc.o
                0x00010a24                mem_init

.text.mem_get_size
                0x00010a84       0x40
 .text.mem_get_size
                0x00010a84       0x40 ./src/lib/alloc.o
                0x00010a84                mem_get_size

.text.malloc    0x00010ac4      0x15c
 .text.malloc   0x00010ac4      0x15c ./src/lib/alloc.o
                0x00010ac4                malloc

.text.free      0x00010c20       0xa8
 .text.free     0x00010c20       0xa8 ./src/lib/alloc.o
                0x00010c20                free

.text.palloc    0x00010cc8       0xc0
 .text.palloc   0x00010cc8       0xc0 ./src/lib/alloc.o
                0x00010cc8                palloc

.text.pfree     0x00010d88       0x54
 .text.pfree    0x00010d88       0x54 ./src/lib/alloc.o
                0x00010d88                pfree

.iplt           0x00010ddc        0x0
 .iplt          0x00000000        0x0 ./src/lib/alloc.o

.text.assertion_failed
                0x00010ddc       0x88
 .text.assertion_failed
                0x00010ddc       0x88 ./src/lib/assert.o
                0x00010ddc                assertion_failed

.text.BcmFrameBuffer
                0x00010e64      0x130
 .text.BcmFrameBuffer
                0x00010e64      0x130 ./src/lib/bcmframebuffer.o
                0x00010e64                BcmFrameBuffer

.text._BcmFrameBuffer
                0x00010f94       0x44
 .text._BcmFrameBuffer
                0x00010f94       0x44 ./src/lib/bcmframebuffer.o
                0x00010f94                _BcmFrameBuffer

.text.BcmFrameBufferSetPalette
                0x00010fd8       0x4c
 .text.BcmFrameBufferSetPalette
                0x00010fd8       0x4c ./src/lib/bcmframebuffer.o
                0x00010fd8                BcmFrameBufferSetPalette

.text.BcmFrameBufferInitialize
                0x00011024       0x6c
 .text.BcmFrameBufferInitialize
                0x00011024       0x6c ./src/lib/bcmframebuffer.o
                0x00011024                BcmFrameBufferInitialize

.text.BcmFrameBufferGetWidth
                0x00011090       0x34
 .text.BcmFrameBufferGetWidth
                0x00011090       0x34 ./src/lib/bcmframebuffer.o
                0x00011090                BcmFrameBufferGetWidth

.text.BcmFrameBufferGetHeight
                0x000110c4       0x34
 .text.BcmFrameBufferGetHeight
                0x000110c4       0x34 ./src/lib/bcmframebuffer.o
                0x000110c4                BcmFrameBufferGetHeight

.text.BcmFrameBufferGetPitch
                0x000110f8       0x34
 .text.BcmFrameBufferGetPitch
                0x000110f8       0x34 ./src/lib/bcmframebuffer.o
                0x000110f8                BcmFrameBufferGetPitch

.text.BcmFrameBufferGetDepth
                0x0001112c       0x34
 .text.BcmFrameBufferGetDepth
                0x0001112c       0x34 ./src/lib/bcmframebuffer.o
                0x0001112c                BcmFrameBufferGetDepth

.text.BcmFrameBufferGetBuffer
                0x00011160       0x38
 .text.BcmFrameBufferGetBuffer
                0x00011160       0x38 ./src/lib/bcmframebuffer.o
                0x00011160                BcmFrameBufferGetBuffer

.text.BcmFrameBufferGetSize
                0x00011198       0x34
 .text.BcmFrameBufferGetSize
                0x00011198       0x34 ./src/lib/bcmframebuffer.o
                0x00011198                BcmFrameBufferGetSize

.text.BcmMailBox
                0x000111cc       0x38
 .text.BcmMailBox
                0x000111cc       0x38 ./src/lib/bcmmailbox.o
                0x000111cc                BcmMailBox

.text._BcmMailBox
                0x00011204       0x20
 .text._BcmMailBox
                0x00011204       0x20 ./src/lib/bcmmailbox.o
                0x00011204                _BcmMailBox

.text.BcmMailBoxWriteRead
                0x00011224      0x128
 .text.BcmMailBoxWriteRead
                0x00011224      0x128 ./src/lib/bcmmailbox.o
                0x00011224                BcmMailBoxWriteRead

.text.BcmMailBoxFlush
                0x0001134c       0x58
 .text.BcmMailBoxFlush
                0x0001134c       0x58 ./src/lib/bcmmailbox.o
                0x0001134c                BcmMailBoxFlush

.text.BcmMailBoxRead
                0x000113a4       0x60
 .text.BcmMailBoxRead
                0x000113a4       0x60 ./src/lib/bcmmailbox.o
                0x000113a4                BcmMailBoxRead

.text.BcmMailBoxWrite
                0x00011404       0x78
 .text.BcmMailBoxWrite
                0x00011404       0x78 ./src/lib/bcmmailbox.o
                0x00011404                BcmMailBoxWrite

.text.BcmPropertyTags
                0x0001147c       0x44
 .text.BcmPropertyTags
                0x0001147c       0x44 ./src/lib/bcmpropertytags.o
                0x0001147c                BcmPropertyTags

.text._BcmPropertyTags
                0x000114c0       0x3c
 .text._BcmPropertyTags
                0x000114c0       0x3c ./src/lib/bcmpropertytags.o
                0x000114c0                _BcmPropertyTags

.text.BcmPropertyTagsGetTag
                0x000114fc      0x184
 .text.BcmPropertyTagsGetTag
                0x000114fc      0x184 ./src/lib/bcmpropertytags.o
                0x000114fc                BcmPropertyTagsGetTag

.text.CharGenerator
                0x00011680       0x34
 .text.CharGenerator
                0x00011680       0x34 ./src/lib/chargenerator.o
                0x00011680                CharGenerator

.text._CharGenerator
                0x000116b4        0x4
 .text._CharGenerator
                0x000116b4        0x4 ./src/lib/chargenerator.o
                0x000116b4                _CharGenerator

.text.CharGeneratorGetCharWidth
                0x000116b8       0x34
 .text.CharGeneratorGetCharWidth
                0x000116b8       0x34 ./src/lib/chargenerator.o
                0x000116b8                CharGeneratorGetCharWidth

.text.CharGeneratorGetCharHeight
                0x000116ec       0x34
 .text.CharGeneratorGetCharHeight
                0x000116ec       0x34 ./src/lib/chargenerator.o
                0x000116ec                CharGeneratorGetCharHeight

.text.CharGeneratorGetUnderline
                0x00011720       0x34
 .text.CharGeneratorGetUnderline
                0x00011720       0x34 ./src/lib/chargenerator.o
                0x00011720                CharGeneratorGetUnderline

.text.CharGeneratorGetPixel
                0x00011754       0xac
 .text.CharGeneratorGetPixel
                0x00011754       0xac ./src/lib/chargenerator.o
                0x00011754                CharGeneratorGetPixel

.text.debug_hexdump
                0x00011800      0x108
 .text.debug_hexdump
                0x00011800      0x108 ./src/lib/debug.o
                0x00011800                debug_hexdump

.text.debug_stacktrace
                0x00011908       0x84
 .text.debug_stacktrace
                0x00011908       0x84 ./src/lib/debug.o
                0x00011908                debug_stacktrace

.text.ExceptionHandler2
                0x0001198c       0x64
 .text.ExceptionHandler2
                0x0001198c       0x64 ./src/lib/exceptionhandler.o
                0x0001198c                ExceptionHandler2

.text._ExceptionHandler
                0x000119f0       0x3c
 .text._ExceptionHandler
                0x000119f0       0x3c ./src/lib/exceptionhandler.o
                0x000119f0                _ExceptionHandler

.text.ExceptionHandlerThrow
                0x00011a2c       0x64
 .text.ExceptionHandlerThrow
                0x00011a2c       0x64 ./src/lib/exceptionhandler.o
                0x00011a2c                ExceptionHandlerThrow

.text.ExceptionHandlerThrow2
                0x00011a90      0x100
 .text.ExceptionHandlerThrow2
                0x00011a90      0x100 ./src/lib/exceptionhandler.o
                0x00011a90                ExceptionHandlerThrow2

.text.ExceptionHandlerGet
                0x00011b90       0x38
 .text.ExceptionHandlerGet
                0x00011b90       0x38 ./src/lib/exceptionhandler.o
                0x00011b90                ExceptionHandlerGet

.text.ExceptionHandler
                0x00011bc8      0x134
 .text.ExceptionHandler
                0x00011bc8      0x134 ./src/lib/exceptionhandler.o
                0x00011bc8                ExceptionHandler

.text.InterruptSystem
                0x00011cfc       0x58
 .text.InterruptSystem
                0x00011cfc       0x58 ./src/lib/interrupt.o
                0x00011cfc                InterruptSystem

.text._InterruptSystem
                0x00011d54       0x14
 .text._InterruptSystem
                0x00011d54       0x14 ./src/lib/interrupt.o
                0x00011d54                _InterruptSystem

.text.InterruptSystemInitialize
                0x00011d68       0x34
 .text.InterruptSystemInitialize
                0x00011d68       0x34 ./src/lib/interrupt.o
                0x00011d68                InterruptSystemInitialize

.text.InterruptSystemConnectIRQ
                0x00011d9c       0xfc
 .text.InterruptSystemConnectIRQ
                0x00011d9c       0xfc ./src/lib/interrupt.o
                0x00011d9c                InterruptSystemConnectIRQ

.text.InterruptSystemDisconnectIRQ
                0x00011e98      0x108
 .text.InterruptSystemDisconnectIRQ
                0x00011e98      0x108 ./src/lib/interrupt.o
                0x00011e98                InterruptSystemDisconnectIRQ

.text.InterruptSystemEnableIRQ
                0x00011fa0       0x7c
 .text.InterruptSystemEnableIRQ
                0x00011fa0       0x7c ./src/lib/interrupt.o
                0x00011fa0                InterruptSystemEnableIRQ

.text.InterruptSystemDisableIRQ
                0x0001201c       0x7c
 .text.InterruptSystemDisableIRQ
                0x0001201c       0x7c ./src/lib/interrupt.o
                0x0001201c                InterruptSystemDisableIRQ

.text.InterruptSystemGet
                0x00012098       0x38
 .text.InterruptSystemGet
                0x00012098       0x38 ./src/lib/interrupt.o
                0x00012098                InterruptSystemGet

.text.InterruptSystemCallIRQHandler
                0x000120d0       0xf0
 .text.InterruptSystemCallIRQHandler
                0x000120d0       0xf0 ./src/lib/interrupt.o
                0x000120d0                InterruptSystemCallIRQHandler

.text.InterruptHandler
                0x000121c0      0x128
 .text.InterruptHandler
                0x000121c0      0x128 ./src/lib/interrupt.o
                0x000121c0                InterruptHandler

.text.Divide    0x000122e8       0xd0
 .text.Divide   0x000122e8       0xd0 ./src/lib/libhelper.o
                0x000122e8                Divide

.text.Logger    0x000123b8       0x20
 .text.Logger   0x000123b8       0x20 ./src/lib/logger.o
                0x000123b8                Logger

.text._Logger   0x000123d8       0x1c
 .text._Logger  0x000123d8       0x1c ./src/lib/logger.o
                0x000123d8                _Logger

.text.LoggerGet
                0x000123f4       0x10
 .text.LoggerGet
                0x000123f4       0x10 ./src/lib/logger.o
                0x000123f4                LoggerGet

.text.LoggerWrite2
                0x00012404       0x28
 .text.LoggerWrite2
                0x00012404       0x28 ./src/lib/logger.o
                0x00012404                LoggerWrite2

.text.LoggerWriteV
                0x0001242c      0x150
 .text.LoggerWriteV
                0x0001242c      0x150 ./src/lib/logger.o
                0x0001242c                LoggerWriteV

.text.LoggerWrite
                0x0001257c      0x160
 .text.LoggerWrite
                0x0001257c      0x160 ./src/lib/logger.o
                0x0001257c                LoggerWrite

.text.LoggerInitialize
                0x000126dc       0x28
 .text.LoggerInitialize
                0x000126dc       0x28 ./src/lib/logger.o
                0x000126dc                LoggerInitialize

.text.read32    0x00012704        0x8
 .text.read32   0x00012704        0x8 ./src/lib/memio.o
                0x00012704                read32

.text.write32   0x0001270c        0x8
 .text.write32  0x0001270c        0x8 ./src/lib/memio.o
                0x0001270c                write32

.text._MemorySystem
                0x00012714       0x7c
 .text._MemorySystem
                0x00012714       0x7c ./src/lib/memory.o
                0x00012714                _MemorySystem

.text.MemorySystemGetMemSize
                0x00012790       0x34
 .text.MemorySystemGetMemSize
                0x00012790       0x34 ./src/lib/memory.o
                0x00012790                MemorySystemGetMemSize

.text.MemorySystemEnableMMU
                0x000127c4      0x118
 .text.MemorySystemEnableMMU
                0x000127c4      0x118 ./src/lib/memory.o
                0x000127c4                MemorySystemEnableMMU

.text.MemorySystem
                0x000128dc      0x160
 .text.MemorySystem
                0x000128dc      0x160 ./src/lib/memory.o
                0x000128dc                MemorySystem

.text.PageTable
                0x00012a3c       0xc8
 .text.PageTable
                0x00012a3c       0xc8 ./src/lib/pagetable.o
                0x00012a3c                PageTable

.text.PageTable2
                0x00012b04      0x128
 .text.PageTable2
                0x00012b04      0x128 ./src/lib/pagetable.o
                0x00012b04                PageTable2

.text._PageTable
                0x00012c2c       0x48
 .text._PageTable
                0x00012c2c       0x48 ./src/lib/pagetable.o
                0x00012c2c                _PageTable

.text.PageTableGetBaseAddress
                0x00012c74       0x34
 .text.PageTableGetBaseAddress
                0x00012c74       0x34 ./src/lib/pagetable.o
                0x00012c74                PageTableGetBaseAddress

.text.ScreenDeviceInvertCursor.part.3
                0x00012ca8       0xb4
 .text.ScreenDeviceInvertCursor.part.3
                0x00012ca8       0xb4 ./src/lib/screen.o

.text.ScreenDevice
                0x00012d5c       0x4c
 .text.ScreenDevice
                0x00012d5c       0x4c ./src/lib/screen.o
                0x00012d5c                ScreenDevice

.text._ScreenDevice
                0x00012da8       0x30
 .text._ScreenDevice
                0x00012da8       0x30 ./src/lib/screen.o
                0x00012da8                _ScreenDevice

.text.ScreenDeviceGetWidth
                0x00012dd8        0x8
 .text.ScreenDeviceGetWidth
                0x00012dd8        0x8 ./src/lib/screen.o
                0x00012dd8                ScreenDeviceGetWidth

.text.ScreenDeviceGetHeight
                0x00012de0        0x8
 .text.ScreenDeviceGetHeight
                0x00012de0        0x8 ./src/lib/screen.o
                0x00012de0                ScreenDeviceGetHeight

.text.ScreenDeviceSetPixel
                0x00012de8       0x28
 .text.ScreenDeviceSetPixel
                0x00012de8       0x28 ./src/lib/screen.o
                0x00012de8                ScreenDeviceSetPixel

.text.ScreenDeviceGetPixel
                0x00012e10       0x30
 .text.ScreenDeviceGetPixel
                0x00012e10       0x30 ./src/lib/screen.o
                0x00012e10                ScreenDeviceGetPixel

.text.ScreenDeviceRotor
                0x00012e40       0xc8
 .text.ScreenDeviceRotor
                0x00012e40       0xc8 ./src/lib/screen.o
                0x00012e40                ScreenDeviceRotor

.text.ScreenDeviceCarriageReturn
                0x00012f08        0xc
 .text.ScreenDeviceCarriageReturn
                0x00012f08        0xc ./src/lib/screen.o
                0x00012f08                ScreenDeviceCarriageReturn

.text.ScreenDeviceClearDisplayEnd
                0x00012f14       0xe8
 .text.ScreenDeviceClearDisplayEnd
                0x00012f14       0xe8 ./src/lib/screen.o
                0x00012f14                ScreenDeviceClearDisplayEnd

.text.ScreenDeviceInitialize
                0x00012ffc      0x118
 .text.ScreenDeviceInitialize
                0x00012ffc      0x118 ./src/lib/screen.o
                0x00012ffc                ScreenDeviceInitialize

.text.ScreenDeviceClearLineEnd
                0x00013114       0xb0
 .text.ScreenDeviceClearLineEnd
                0x00013114       0xb0 ./src/lib/screen.o
                0x00013114                ScreenDeviceClearLineEnd

.text.ScreenDeviceCursorDown
                0x000131c4       0x98
 .text.ScreenDeviceCursorDown
                0x000131c4       0x98 ./src/lib/screen.o
                0x000131c4                ScreenDeviceCursorDown

.text.ScreenDeviceCursorHome
                0x0001325c       0x10
 .text.ScreenDeviceCursorHome
                0x0001325c       0x10 ./src/lib/screen.o
                0x0001325c                ScreenDeviceCursorHome

.text.ScreenDeviceCursorLeft
                0x0001326c       0x68
 .text.ScreenDeviceCursorLeft
                0x0001326c       0x68 ./src/lib/screen.o
                0x0001326c                ScreenDeviceCursorLeft

.text.ScreenDeviceCursorMove
                0x000132d4       0x54
 .text.ScreenDeviceCursorMove
                0x000132d4       0x54 ./src/lib/screen.o
                0x000132d4                ScreenDeviceCursorMove

.text.ScreenDeviceCursorRight
                0x00013328       0xc0
 .text.ScreenDeviceCursorRight
                0x00013328       0xc0 ./src/lib/screen.o
                0x00013328                ScreenDeviceCursorRight

.text.ScreenDeviceWrite2
                0x000133e8      0x898
 .text.ScreenDeviceWrite2
                0x000133e8      0x898 ./src/lib/screen.o
                0x000133e8                ScreenDeviceWrite2

.text.ScreenDeviceWrite
                0x00013c80       0x8c
 .text.ScreenDeviceWrite
                0x00013c80       0x8c ./src/lib/screen.o
                0x00013c80                ScreenDeviceWrite

.text.ScreenDeviceCursorUp
                0x00013d0c       0x38
 .text.ScreenDeviceCursorUp
                0x00013d0c       0x38 ./src/lib/screen.o
                0x00013d0c                ScreenDeviceCursorUp

.text.ScreenDeviceDeleteChars
                0x00013d44        0x4
 .text.ScreenDeviceDeleteChars
                0x00013d44        0x4 ./src/lib/screen.o
                0x00013d44                ScreenDeviceDeleteChars

.text.ScreenDeviceDeleteLines
                0x00013d48        0x4
 .text.ScreenDeviceDeleteLines
                0x00013d48        0x4 ./src/lib/screen.o
                0x00013d48                ScreenDeviceDeleteLines

.text.ScreenDeviceDisplayChar
                0x00013d4c      0x188
 .text.ScreenDeviceDisplayChar
                0x00013d4c      0x188 ./src/lib/screen.o
                0x00013d4c                ScreenDeviceDisplayChar

.text.ScreenDeviceEraseChars
                0x00013ed4       0xe0
 .text.ScreenDeviceEraseChars
                0x00013ed4       0xe0 ./src/lib/screen.o
                0x00013ed4                ScreenDeviceEraseChars

.text.ScreenDeviceInsertLines
                0x00013fb4        0x4
 .text.ScreenDeviceInsertLines
                0x00013fb4        0x4 ./src/lib/screen.o
                0x00013fb4                ScreenDeviceInsertLines

.text.ScreenDeviceInsertMode
                0x00013fb8        0x8
 .text.ScreenDeviceInsertMode
                0x00013fb8        0x8 ./src/lib/screen.o
                0x00013fb8                ScreenDeviceInsertMode

.text.ScreenDeviceNewLine
                0x00013fc0       0xa0
 .text.ScreenDeviceNewLine
                0x00013fc0       0xa0 ./src/lib/screen.o
                0x00013fc0                ScreenDeviceNewLine

.text.ScreenDeviceReverseScroll
                0x00014060        0x4
 .text.ScreenDeviceReverseScroll
                0x00014060        0x4 ./src/lib/screen.o
                0x00014060                ScreenDeviceReverseScroll

.text.ScreenDeviceSetCursorMode
                0x00014064        0x8
 .text.ScreenDeviceSetCursorMode
                0x00014064        0x8 ./src/lib/screen.o
                0x00014064                ScreenDeviceSetCursorMode

.text.ScreenDeviceSetStandoutMode
                0x0001406c       0xa0
 .text.ScreenDeviceSetStandoutMode
                0x0001406c       0xa0 ./src/lib/screen.o
                0x0001406c                ScreenDeviceSetStandoutMode

.text.ScreenDeviceTabulator
                0x0001410c       0xcc
 .text.ScreenDeviceTabulator
                0x0001410c       0xcc ./src/lib/screen.o
                0x0001410c                ScreenDeviceTabulator

.text.ScreenDeviceScroll
                0x000141d8       0x60
 .text.ScreenDeviceScroll
                0x000141d8       0x60 ./src/lib/screen.o
                0x000141d8                ScreenDeviceScroll

.text.ScreenDeviceDisplayChar2
                0x00014238       0xc0
 .text.ScreenDeviceDisplayChar2
                0x00014238       0xc0 ./src/lib/screen.o
                0x00014238                ScreenDeviceDisplayChar2

.text.ScreenDeviceEraseChar
                0x000142f8       0x8c
 .text.ScreenDeviceEraseChar
                0x000142f8       0x8c ./src/lib/screen.o
                0x000142f8                ScreenDeviceEraseChar

.text.ScreenDeviceInvertCursor
                0x00014384       0x10
 .text.ScreenDeviceInvertCursor
                0x00014384       0x10 ./src/lib/screen.o
                0x00014384                ScreenDeviceInvertCursor

.text.String    0x00014394       0x38
 .text.String   0x00014394       0x38 ./src/lib/string.o
                0x00014394                String

.text.String2   0x000143cc       0x50
 .text.String2  0x000143cc       0x50 ./src/lib/string.o
                0x000143cc                String2

.text._String   0x0001441c       0x44
 .text._String  0x0001441c       0x44 ./src/lib/string.o
                0x0001441c                _String

.text.StringGet
                0x00014460       0x40
 .text.StringGet
                0x00014460       0x40 ./src/lib/string.o
                0x00014460                StringGet

.text.StringSet
                0x000144a0       0x60
 .text.StringSet
                0x000144a0       0x60 ./src/lib/string.o
                0x000144a0                StringSet

.text.StringGetLength
                0x00014500       0x3c
 .text.StringGetLength
                0x00014500       0x3c ./src/lib/string.o
                0x00014500                StringGetLength

.text.StringAppend
                0x0001453c       0xac
 .text.StringAppend
                0x0001453c       0xac ./src/lib/string.o
                0x0001453c                StringAppend

.text.StringCompare
                0x000145e8       0x48
 .text.StringCompare
                0x000145e8       0x48 ./src/lib/string.o
                0x000145e8                StringCompare

.text.StringFind
                0x00014630       0x80
 .text.StringFind
                0x00014630       0x80 ./src/lib/string.o
                0x00014630                StringFind

.text.StringFormatV
                0x000146b0      0xea0
 .text.StringFormatV
                0x000146b0      0xea0 ./src/lib/string.o
                0x000146b0                StringFormatV

.text.StringFormat
                0x00015550       0x54
 .text.StringFormat
                0x00015550       0x54 ./src/lib/string.o
                0x00015550                StringFormat

.text.StringPutChar
                0x000155a4       0xd4
 .text.StringPutChar
                0x000155a4       0xd4 ./src/lib/string.o
                0x000155a4                StringPutChar

.text.StringPutString
                0x00015678       0xe0
 .text.StringPutString
                0x00015678       0xe0 ./src/lib/string.o
                0x00015678                StringPutString

.text.StringReserveSpace
                0x00015758       0x94
 .text.StringReserveSpace
                0x00015758       0x94 ./src/lib/string.o
                0x00015758                StringReserveSpace

.text.ntoa      0x000157ec       0xbc
 .text.ntoa     0x000157ec       0xbc ./src/lib/string.o
                0x000157ec                ntoa

.text.EnterCritical
                0x000158a8       0x3c
 .text.EnterCritical
                0x000158a8       0x3c ./src/lib/synchronize.o
                0x000158a8                EnterCritical

.text.LeaveCritical
                0x000158e4       0x68
 .text.LeaveCritical
                0x000158e4       0x68 ./src/lib/synchronize.o
                0x000158e4                LeaveCritical

.text.InvalidateDataCache
                0x0001594c       0x88
 .text.InvalidateDataCache
                0x0001594c       0x88 ./src/lib/synchronize.o
                0x0001594c                InvalidateDataCache

.text.CleanDataCache
                0x000159d4       0x88
 .text.CleanDataCache
                0x000159d4       0x88 ./src/lib/synchronize.o
                0x000159d4                CleanDataCache

.text.InvalidateDataCacheRange
                0x00015a5c       0x30
 .text.InvalidateDataCacheRange
                0x00015a5c       0x30 ./src/lib/synchronize.o
                0x00015a5c                InvalidateDataCacheRange

.text.CleanDataCacheRange
                0x00015a8c       0x30
 .text.CleanDataCacheRange
                0x00015a8c       0x30 ./src/lib/synchronize.o
                0x00015a8c                CleanDataCacheRange

.text.CleanAndInvalidateDataCacheRange
                0x00015abc       0x30
 .text.CleanAndInvalidateDataCacheRange
                0x00015abc       0x30 ./src/lib/synchronize.o
                0x00015abc                CleanAndInvalidateDataCacheRange

.text.halt      0x00015aec        0x8
 .text.halt     0x00015aec        0x8 ./src/lib/sysinit.o
                0x00015aec                halt

.text.reboot    0x00015af4       0x34
 .text.reboot   0x00015af4       0x34 ./src/lib/sysinit.o
                0x00015af4                reboot

.text.sysinit   0x00015b28       0x80
 .text.sysinit  0x00015b28       0x80 ./src/lib/sysinit.o
                0x00015b28                sysinit

.text.TimerInterruptHandler
                0x00015ba8      0x170
 .text.TimerInterruptHandler
                0x00015ba8      0x170 ./src/lib/timer.o
                0x00015ba8                TimerInterruptHandler

.text.Timer     0x00015d18       0xa0
 .text.Timer    0x00015d18       0xa0 ./src/lib/timer.o
                0x00015d18                Timer

.text._Timer    0x00015db8       0x14
 .text._Timer   0x00015db8       0x14 ./src/lib/timer.o
                0x00015db8                _Timer

.text.TimerInitialize
                0x00015dcc      0x104
 .text.TimerInitialize
                0x00015dcc      0x104 ./src/lib/timer.o
                0x00015dcc                TimerInitialize

.text.TimerGetClockTicks
                0x00015ed0       0x40
 .text.TimerGetClockTicks
                0x00015ed0       0x40 ./src/lib/timer.o
                0x00015ed0                TimerGetClockTicks

.text.TimerGetTicks
                0x00015f10       0x34
 .text.TimerGetTicks
                0x00015f10       0x34 ./src/lib/timer.o
                0x00015f10                TimerGetTicks

.text.TimerGetTime
                0x00015f44       0x34
 .text.TimerGetTime
                0x00015f44       0x34 ./src/lib/timer.o
                0x00015f44                TimerGetTime

.text.TimerGetTimeString
                0x00015f78       0xf0
 .text.TimerGetTimeString
                0x00015f78       0xf0 ./src/lib/timer.o
                0x00015f78                TimerGetTimeString

.text.TimerStartKernelTimer
                0x00016068       0xd4
 .text.TimerStartKernelTimer
                0x00016068       0xd4 ./src/lib/timer.o
                0x00016068                TimerStartKernelTimer

.text.TimerCancelKernelTimer
                0x0001613c       0x60
 .text.TimerCancelKernelTimer
                0x0001613c       0x60 ./src/lib/timer.o
                0x0001613c                TimerCancelKernelTimer

.text.TimerMsDelay
                0x0001619c       0x44
 .text.TimerMsDelay
                0x0001619c       0x44 ./src/lib/timer.o
                0x0001619c                TimerMsDelay

.text.TimerusDelay
                0x000161e0       0x44
 .text.TimerusDelay
                0x000161e0       0x44 ./src/lib/timer.o
                0x000161e0                TimerusDelay

.text.TimerGet  0x00016224       0x38
 .text.TimerGet
                0x00016224       0x38 ./src/lib/timer.o
                0x00016224                TimerGet

.text.TimerSimpleMsDelay
                0x0001625c       0x50
 .text.TimerSimpleMsDelay
                0x0001625c       0x50 ./src/lib/timer.o
                0x0001625c                TimerSimpleMsDelay

.text.TimerSimpleusDelay
                0x000162ac       0x44
 .text.TimerSimpleusDelay
                0x000162ac       0x44 ./src/lib/timer.o
                0x000162ac                TimerSimpleusDelay

.text.TimerPollKernelTimers
                0x000162f0       0x98
 .text.TimerPollKernelTimers
                0x000162f0       0x98 ./src/lib/timer.o
                0x000162f0                TimerPollKernelTimers

.text.TimerTuneMsDelay
                0x00016388       0x9c
 .text.TimerTuneMsDelay
                0x00016388       0x9c ./src/lib/timer.o
                0x00016388                TimerTuneMsDelay

.text.MsDelay   0x00016424       0x18
 .text.MsDelay  0x00016424       0x18 ./src/lib/uspibind.o
                0x00016424                MsDelay

.text.usDelay   0x0001643c       0x18
 .text.usDelay  0x0001643c       0x18 ./src/lib/uspibind.o
                0x0001643c                usDelay

.text.StartKernelTimer
                0x00016454       0x38
 .text.StartKernelTimer
                0x00016454       0x38 ./src/lib/uspibind.o
                0x00016454                StartKernelTimer

.text.CancelKernelTimer
                0x0001648c       0x18
 .text.CancelKernelTimer
                0x0001648c       0x18 ./src/lib/uspibind.o
                0x0001648c                CancelKernelTimer

.text.ConnectInterrupt
                0x000164a4       0x28
 .text.ConnectInterrupt
                0x000164a4       0x28 ./src/lib/uspibind.o
                0x000164a4                ConnectInterrupt

.text.SetPowerStateOn
                0x000164cc       0x80
 .text.SetPowerStateOn
                0x000164cc       0x80 ./src/lib/uspibind.o
                0x000164cc                SetPowerStateOn

.text.GetMACAddress
                0x0001654c       0x68
 .text.GetMACAddress
                0x0001654c       0x68 ./src/lib/uspibind.o
                0x0001654c                GetMACAddress

.text.LogWrite  0x000165b4       0x48
 .text.LogWrite
                0x000165b4       0x48 ./src/lib/uspibind.o
                0x000165b4                LogWrite

.text.uspi_assertion_failed
                0x000165fc        0x4
 .text.uspi_assertion_failed
                0x000165fc        0x4 ./src/lib/uspibind.o
                0x000165fc                uspi_assertion_failed

.text.DebugHexdump
                0x00016600        0x4
 .text.DebugHexdump
                0x00016600        0x4 ./src/lib/uspibind.o
                0x00016600                DebugHexdump

.text.USPiEnvInitialize
                0x00016604       0xe0
 .text.USPiEnvInitialize
                0x00016604       0xe0 ./src/lib/uspienv.o
                0x00016604                USPiEnvInitialize

.text.USPiEnvClose
                0x000166e4       0x3c
 .text.USPiEnvClose
                0x000166e4       0x3c ./src/lib/uspienv.o
                0x000166e4                USPiEnvClose

.text.USPiEnvGetScreen
                0x00016720        0xc
 .text.USPiEnvGetScreen
                0x00016720        0xc ./src/lib/uspienv.o
                0x00016720                USPiEnvGetScreen

.text.memset    0x0001672c       0x20
 .text.memset   0x0001672c       0x20 ./src/lib/util.o
                0x0001672c                memset

.text.memcpy    0x0001674c       0xf0
 .text.memcpy   0x0001674c       0xf0 ./src/lib/util.o
                0x0001674c                memcpy

.text.memcmp    0x0001683c       0x5c
 .text.memcmp   0x0001683c       0x5c ./src/lib/util.o
                0x0001683c                memcmp

.text.strlen    0x00016898       0x28
 .text.strlen   0x00016898       0x28 ./src/lib/util.o
                0x00016898                strlen

.text.strcmp    0x000168c0       0x90
 .text.strcmp   0x000168c0       0x90 ./src/lib/util.o
                0x000168c0                strcmp

.text.strcpy    0x00016950       0x2c
 .text.strcpy   0x00016950       0x2c ./src/lib/util.o
                0x00016950                strcpy

.text.strncpy   0x0001697c       0x50
 .text.strncpy  0x0001697c       0x50 ./src/lib/util.o
                0x0001697c                strncpy

.text.strcat    0x000169cc       0x44
 .text.strcat   0x000169cc       0x44 ./src/lib/util.o
                0x000169cc                strcat

.text.char2int  0x00016a10        0x4
 .text.char2int
                0x00016a10        0x4 ./src/lib/util.o
                0x00016a10                char2int

.text.le2be16   0x00016a14        0xc
 .text.le2be16  0x00016a14        0xc ./src/lib/util.o
                0x00016a14                le2be16

.text.le2be32   0x00016a20        0x8
 .text.le2be32  0x00016a20        0x8 ./src/lib/util.o
                0x00016a20                le2be32

.text.InitialiseFrameBuffer
                0x00016a28      0x248
 .text.InitialiseFrameBuffer
                0x00016a28      0x248 ./src/FrameBuffer.o
                0x00016a28                InitialiseFrameBuffer

.text.TestPattern
                0x00016c70       0x3c
 .text.TestPattern
                0x00016c70       0x3c ./src/FrameBuffer.o
                0x00016c70                TestPattern

.text.DrawPixel
                0x00016cac       0x20
 .text.DrawPixel
                0x00016cac       0x20 ./src/FrameBuffer.o
                0x00016cac                DrawPixel

.text.DrawLine  0x00016ccc       0xdc
 .text.DrawLine
                0x00016ccc       0xdc ./src/FrameBuffer.o
                0x00016ccc                DrawLine

.text.DrawPixelK
                0x00016da8       0x20
 .text.DrawPixelK
                0x00016da8       0x20 ./src/FrameBuffer.o
                0x00016da8                DrawPixelK

.text.DrawLineK
                0x00016dc8       0xa0
 .text.DrawLineK
                0x00016dc8       0xa0 ./src/FrameBuffer.o
                0x00016dc8                DrawLineK

.text.DrawRectK
                0x00016e68       0x58
 .text.DrawRectK
                0x00016e68       0x58 ./src/FrameBuffer.o
                0x00016e68                DrawRectK

.text.DrawRectKTesting
                0x00016ec0       0x5c
 .text.DrawRectKTesting
                0x00016ec0       0x5c ./src/FrameBuffer.o
                0x00016ec0                DrawRectKTesting

.text.ClearScreen
                0x00016f1c       0x70
 .text.ClearScreen
                0x00016f1c       0x70 ./src/FrameBuffer.o
                0x00016f1c                ClearScreen

.text.FillScreen
                0x00016f8c       0x5c
 .text.FillScreen
                0x00016f8c       0x5c ./src/FrameBuffer.o
                0x00016f8c                FillScreen

.text.SetPinFunction
                0x00016fe8       0x60
 .text.SetPinFunction
                0x00016fe8       0x60 ./src/GPIO.o
                0x00016fe8                SetPinFunction

.text.SetPin    0x00017048       0x14
 .text.SetPin   0x00017048       0x14 ./src/GPIO.o
                0x00017048                SetPin

.text.ClearPin  0x0001705c       0x14
 .text.ClearPin
                0x0001705c       0x14 ./src/GPIO.o
                0x0001705c                ClearPin

.text.ErrorFlash
                0x00017070       0x6c
 .text.ErrorFlash
                0x00017070       0x6c ./src/GPIO.o
                0x00017070                ErrorFlash

.text.MailboxWrite
                0x000170dc       0x40
 .text.MailboxWrite
                0x000170dc       0x40 ./src/Mailbox.o
                0x000170dc                MailboxWrite

.text.MailboxRead
                0x0001711c       0x50
 .text.MailboxRead
                0x0001711c       0x50 ./src/Mailbox.o
                0x0001711c                MailboxRead

.text.wait      0x0001716c       0x4c
 .text.wait     0x0001716c       0x4c ./src/SystemTimer.o
                0x0001716c                wait

.text.arm_timer_freerun_init
                0x000171b8       0x2c
 .text.arm_timer_freerun_init
                0x000171b8       0x2c ./src/armtimer.o
                0x000171b8                arm_timer_freerun_init

.text.arm_timer_freerun_tick
                0x000171e4        0xc
 .text.arm_timer_freerun_tick
                0x000171e4        0xc ./src/armtimer.o
                0x000171e4                arm_timer_freerun_tick

.text.RPI_GetIrqController
                0x000171f0        0xc
 .text.RPI_GetIrqController
                0x000171f0        0xc ./src/armtimer.o
                0x000171f0                RPI_GetIrqController

.text.RPI_GetArmTimer
                0x000171fc        0xc
 .text.RPI_GetArmTimer
                0x000171fc        0xc ./src/armtimer.o
                0x000171fc                RPI_GetArmTimer

.text.arm_timer_init
                0x00017208       0x14
 .text.arm_timer_init
                0x00017208       0x14 ./src/armtimer.o
                0x00017208                arm_timer_init

.text.arm_timer_stop
                0x0001721c       0x14
 .text.arm_timer_stop
                0x0001721c       0x14 ./src/armtimer.o
                0x0001721c                arm_timer_stop

.text.arm_timer_restart
                0x00017230       0x14
 .text.arm_timer_restart
                0x00017230       0x14 ./src/armtimer.o
                0x00017230                arm_timer_restart

.text.arm_timer_tick
                0x00017244       0x10
 .text.arm_timer_tick
                0x00017244       0x10 ./src/armtimer.o
                0x00017244                arm_timer_tick

.text.interrupt_vector
                0x00017254      0x104
 .text.interrupt_vector
                0x00017254      0x104 ./src/armtimer.o
                0x00017254                interrupt_vector

.text.bcm2835_set_debug
                0x00017358       0x10
 .text.bcm2835_set_debug
                0x00017358       0x10 ./src/bcm2835.o
                0x00017358                bcm2835_set_debug

.text.bcm2835_peri_read
                0x00017368       0x10
 .text.bcm2835_peri_read
                0x00017368       0x10 ./src/bcm2835.o
                0x00017368                bcm2835_peri_read

.text.bcm2835_peri_read_nb
                0x00017378        0x8
 .text.bcm2835_peri_read_nb
                0x00017378        0x8 ./src/bcm2835.o
                0x00017378                bcm2835_peri_read_nb

.text.bcm2835_peri_write
                0x00017380        0xc
 .text.bcm2835_peri_write
                0x00017380        0xc ./src/bcm2835.o
                0x00017380                bcm2835_peri_write

.text.bcm2835_peri_write_nb
                0x0001738c        0x8
 .text.bcm2835_peri_write_nb
                0x0001738c        0x8 ./src/bcm2835.o
                0x0001738c                bcm2835_peri_write_nb

.text.bcm2835_peri_set_bits
                0x00017394       0x20
 .text.bcm2835_peri_set_bits
                0x00017394       0x20 ./src/bcm2835.o
                0x00017394                bcm2835_peri_set_bits

.text.bcm2835_gpio_fsel
                0x000173b4       0x60
 .text.bcm2835_gpio_fsel
                0x000173b4       0x60 ./src/bcm2835.o
                0x000173b4                bcm2835_gpio_fsel

.text.bcm2835_gpio_set
                0x00017414       0x2c
 .text.bcm2835_gpio_set
                0x00017414       0x2c ./src/bcm2835.o
                0x00017414                bcm2835_gpio_set

.text.bcm2835_gpio_clr
                0x00017440       0x2c
 .text.bcm2835_gpio_clr
                0x00017440       0x2c ./src/bcm2835.o
                0x00017440                bcm2835_gpio_clr

.text.bcm2835_gpio_set_multi
                0x0001746c       0x18
 .text.bcm2835_gpio_set_multi
                0x0001746c       0x18 ./src/bcm2835.o
                0x0001746c                bcm2835_gpio_set_multi

.text.bcm2835_gpio_clr_multi
                0x00017484       0x18
 .text.bcm2835_gpio_clr_multi
                0x00017484       0x18 ./src/bcm2835.o
                0x00017484                bcm2835_gpio_clr_multi

.text.bcm2835_gpio_lev
                0x0001749c       0x34
 .text.bcm2835_gpio_lev
                0x0001749c       0x34 ./src/bcm2835.o
                0x0001749c                bcm2835_gpio_lev

.text.bcm2835_gpio_eds
                0x000174d0       0x34
 .text.bcm2835_gpio_eds
                0x000174d0       0x34 ./src/bcm2835.o
                0x000174d0                bcm2835_gpio_eds

.text.bcm2835_gpio_set_eds
                0x00017504       0x2c
 .text.bcm2835_gpio_set_eds
                0x00017504       0x2c ./src/bcm2835.o
                0x00017504                bcm2835_gpio_set_eds

.text.bcm2835_gpio_ren
                0x00017530       0x38
 .text.bcm2835_gpio_ren
                0x00017530       0x38 ./src/bcm2835.o
                0x00017530                bcm2835_gpio_ren

.text.bcm2835_gpio_clr_ren
                0x00017568       0x38
 .text.bcm2835_gpio_clr_ren
                0x00017568       0x38 ./src/bcm2835.o
                0x00017568                bcm2835_gpio_clr_ren

.text.bcm2835_gpio_fen
                0x000175a0       0x38
 .text.bcm2835_gpio_fen
                0x000175a0       0x38 ./src/bcm2835.o
                0x000175a0                bcm2835_gpio_fen

.text.bcm2835_gpio_clr_fen
                0x000175d8       0x38
 .text.bcm2835_gpio_clr_fen
                0x000175d8       0x38 ./src/bcm2835.o
                0x000175d8                bcm2835_gpio_clr_fen

.text.bcm2835_gpio_hen
                0x00017610       0x38
 .text.bcm2835_gpio_hen
                0x00017610       0x38 ./src/bcm2835.o
                0x00017610                bcm2835_gpio_hen

.text.bcm2835_gpio_clr_hen
                0x00017648       0x38
 .text.bcm2835_gpio_clr_hen
                0x00017648       0x38 ./src/bcm2835.o
                0x00017648                bcm2835_gpio_clr_hen

.text.bcm2835_gpio_len
                0x00017680       0x38
 .text.bcm2835_gpio_len
                0x00017680       0x38 ./src/bcm2835.o
                0x00017680                bcm2835_gpio_len

.text.bcm2835_gpio_clr_len
                0x000176b8       0x38
 .text.bcm2835_gpio_clr_len
                0x000176b8       0x38 ./src/bcm2835.o
                0x000176b8                bcm2835_gpio_clr_len

.text.bcm2835_gpio_aren
                0x000176f0       0x38
 .text.bcm2835_gpio_aren
                0x000176f0       0x38 ./src/bcm2835.o
                0x000176f0                bcm2835_gpio_aren

.text.bcm2835_gpio_clr_aren
                0x00017728       0x38
 .text.bcm2835_gpio_clr_aren
                0x00017728       0x38 ./src/bcm2835.o
                0x00017728                bcm2835_gpio_clr_aren

.text.bcm2835_gpio_afen
                0x00017760       0x38
 .text.bcm2835_gpio_afen
                0x00017760       0x38 ./src/bcm2835.o
                0x00017760                bcm2835_gpio_afen

.text.bcm2835_gpio_clr_afen
                0x00017798       0x38
 .text.bcm2835_gpio_clr_afen
                0x00017798       0x38 ./src/bcm2835.o
                0x00017798                bcm2835_gpio_clr_afen

.text.bcm2835_gpio_pud
                0x000177d0       0x18
 .text.bcm2835_gpio_pud
                0x000177d0       0x18 ./src/bcm2835.o
                0x000177d0                bcm2835_gpio_pud

.text.bcm2835_gpio_pudclk
                0x000177e8       0x30
 .text.bcm2835_gpio_pudclk
                0x000177e8       0x30 ./src/bcm2835.o
                0x000177e8                bcm2835_gpio_pudclk

.text.bcm2835_gpio_pad
                0x00017818       0x20
 .text.bcm2835_gpio_pad
                0x00017818       0x20 ./src/bcm2835.o
                0x00017818                bcm2835_gpio_pad

.text.bcm2835_gpio_set_pad
                0x00017838       0x24
 .text.bcm2835_gpio_set_pad
                0x00017838       0x24 ./src/bcm2835.o
                0x00017838                bcm2835_gpio_set_pad

.text.bcm2835_delay
                0x0001785c       0x74
 .text.bcm2835_delay
                0x0001785c       0x74 ./src/bcm2835.o
                0x0001785c                bcm2835_delay

.text.bcm2835_delayMicroseconds
                0x000178d0       0x6c
 .text.bcm2835_delayMicroseconds
                0x000178d0       0x6c ./src/bcm2835.o
                0x000178d0                bcm2835_delayMicroseconds

.text.bcm2835_gpio_write
                0x0001793c       0x34
 .text.bcm2835_gpio_write
                0x0001793c       0x34 ./src/bcm2835.o
                0x0001793c                bcm2835_gpio_write

.text.bcm2835_gpio_write_multi
                0x00017970       0x24
 .text.bcm2835_gpio_write_multi
                0x00017970       0x24 ./src/bcm2835.o
                0x00017970                bcm2835_gpio_write_multi

.text.bcm2835_gpio_write_mask
                0x00017994       0x28
 .text.bcm2835_gpio_write_mask
                0x00017994       0x28 ./src/bcm2835.o
                0x00017994                bcm2835_gpio_write_mask

.text.bcm2835_gpio_set_pud
                0x000179bc      0x108
 .text.bcm2835_gpio_set_pud
                0x000179bc      0x108 ./src/bcm2835.o
                0x000179bc                bcm2835_gpio_set_pud

.text.bcm2835_spi_begin
                0x00017ac4       0xac
 .text.bcm2835_spi_begin
                0x00017ac4       0xac ./src/bcm2835.o
                0x00017ac4                bcm2835_spi_begin

.text.bcm2835_spi_end
                0x00017b70       0x74
 .text.bcm2835_spi_end
                0x00017b70       0x74 ./src/bcm2835.o
                0x00017b70                bcm2835_spi_end

.text.bcm2835_spi_setBitOrder
                0x00017be4        0x4
 .text.bcm2835_spi_setBitOrder
                0x00017be4        0x4 ./src/bcm2835.o
                0x00017be4                bcm2835_spi_setBitOrder

.text.bcm2835_spi_setClockDivider
                0x00017be8       0x18
 .text.bcm2835_spi_setClockDivider
                0x00017be8       0x18 ./src/bcm2835.o
                0x00017be8                bcm2835_spi_setClockDivider

.text.bcm2835_spi_setDataMode
                0x00017c00       0x30
 .text.bcm2835_spi_setDataMode
                0x00017c00       0x30 ./src/bcm2835.o
                0x00017c00                bcm2835_spi_setDataMode

.text.bcm2835_spi_transfer
                0x00017c30       0x74
 .text.bcm2835_spi_transfer
                0x00017c30       0x74 ./src/bcm2835.o
                0x00017c30                bcm2835_spi_transfer

.text.bcm2835_spi_transfernb
                0x00017ca4      0x108
 .text.bcm2835_spi_transfernb
                0x00017ca4      0x108 ./src/bcm2835.o
                0x00017ca4                bcm2835_spi_transfernb

.text.bcm2835_spi_writenb
                0x00017dac       0xc0
 .text.bcm2835_spi_writenb
                0x00017dac       0xc0 ./src/bcm2835.o
                0x00017dac                bcm2835_spi_writenb

.text.bcm2835_spi_transfern
                0x00017e6c        0xc
 .text.bcm2835_spi_transfern
                0x00017e6c        0xc ./src/bcm2835.o
                0x00017e6c                bcm2835_spi_transfern

.text.bcm2835_spi_chipSelect
                0x00017e78       0x2c
 .text.bcm2835_spi_chipSelect
                0x00017e78       0x2c ./src/bcm2835.o
                0x00017e78                bcm2835_spi_chipSelect

.text.bcm2835_spi_setChipSelectPolarity
                0x00017ea4       0x3c
 .text.bcm2835_spi_setChipSelectPolarity
                0x00017ea4       0x3c ./src/bcm2835.o
                0x00017ea4                bcm2835_spi_setChipSelectPolarity

.text.bcm2835_i2c_begin
                0x00017ee0       0x94
 .text.bcm2835_i2c_begin
                0x00017ee0       0x94 ./src/bcm2835.o
                0x00017ee0                bcm2835_i2c_begin

.text.bcm2835_i2c_end
                0x00017f74       0x38
 .text.bcm2835_i2c_end
                0x00017f74       0x38 ./src/bcm2835.o
                0x00017f74                bcm2835_i2c_end

.text.bcm2835_i2c_setSlaveAddress
                0x00017fac       0x18
 .text.bcm2835_i2c_setSlaveAddress
                0x00017fac       0x18 ./src/bcm2835.o
                0x00017fac                bcm2835_i2c_setSlaveAddress

.text.bcm2835_i2c_setClockDivider
                0x00017fc4       0x54
 .text.bcm2835_i2c_setClockDivider
                0x00017fc4       0x54 ./src/bcm2835.o
                0x00017fc4                bcm2835_i2c_setClockDivider

.text.bcm2835_i2c_set_baudrate
                0x00018018       0x68
 .text.bcm2835_i2c_set_baudrate
                0x00018018       0x68 ./src/bcm2835.o
                0x00018018                bcm2835_i2c_set_baudrate

.text.bcm2835_i2c_write
                0x00018080      0x11c
 .text.bcm2835_i2c_write
                0x00018080      0x11c ./src/bcm2835.o
                0x00018080                bcm2835_i2c_write

.text.bcm2835_i2c_read
                0x0001819c      0x10c
 .text.bcm2835_i2c_read
                0x0001819c      0x10c ./src/bcm2835.o
                0x0001819c                bcm2835_i2c_read

.text.bcm2835_i2c_read_register_rs
                0x000182a8      0x1c8
 .text.bcm2835_i2c_read_register_rs
                0x000182a8      0x1c8 ./src/bcm2835.o
                0x000182a8                bcm2835_i2c_read_register_rs

.text.bcm2835_i2c_write_read_rs
                0x00018470      0x1e8
 .text.bcm2835_i2c_write_read_rs
                0x00018470      0x1e8 ./src/bcm2835.o
                0x00018470                bcm2835_i2c_write_read_rs

.text.bcm2835_st_read
                0x00018658       0x2c
 .text.bcm2835_st_read
                0x00018658       0x2c ./src/bcm2835.o
                0x00018658                bcm2835_st_read

.text.bcm2835_st_delay
                0x00018684       0x48
 .text.bcm2835_st_delay
                0x00018684       0x48 ./src/bcm2835.o
                0x00018684                bcm2835_st_delay

.text.bcm2835_pwm_set_clock
                0x000186cc      0x12c
 .text.bcm2835_pwm_set_clock
                0x000186cc      0x12c ./src/bcm2835.o
                0x000186cc                bcm2835_pwm_set_clock

.text.bcm2835_pwm_set_mode
                0x000187f8       0x68
 .text.bcm2835_pwm_set_mode
                0x000187f8       0x68 ./src/bcm2835.o
                0x000187f8                bcm2835_pwm_set_mode

.text.bcm2835_pwm_set_range
                0x00018860       0x34
 .text.bcm2835_pwm_set_range
                0x00018860       0x34 ./src/bcm2835.o
                0x00018860                bcm2835_pwm_set_range

.text.bcm2835_pwm_set_data
                0x00018894       0x34
 .text.bcm2835_pwm_set_data
                0x00018894       0x34 ./src/bcm2835.o
                0x00018894                bcm2835_pwm_set_data

.text.bcm2835_aux_muart_init
                0x000188c8       0x9c
 .text.bcm2835_aux_muart_init
                0x000188c8       0x9c ./src/bcm2835.o
                0x000188c8                bcm2835_aux_muart_init

.text.bcm2835_aux_muart_transfer
                0x00018964       0x24
 .text.bcm2835_aux_muart_transfer
                0x00018964       0x24 ./src/bcm2835.o
                0x00018964                bcm2835_aux_muart_transfer

.text.bcm2835_aux_muart_transfernb
                0x00018988       0x70
 .text.bcm2835_aux_muart_transfernb
                0x00018988       0x70 ./src/bcm2835.o
                0x00018988                bcm2835_aux_muart_transfernb

.text.bcm2835_aux_muart_transfer_hex
                0x000189f8       0x68
 .text.bcm2835_aux_muart_transfer_hex
                0x000189f8       0x68 ./src/bcm2835.o
                0x000189f8                bcm2835_aux_muart_transfer_hex

.text.bcm2835_aux_muart_transfer_hexnl
                0x00018a60       0x98
 .text.bcm2835_aux_muart_transfer_hexnl
                0x00018a60       0x98 ./src/bcm2835.o
                0x00018a60                bcm2835_aux_muart_transfer_hexnl

.text.bcm2835_mail_write
                0x00018af8       0x30
 .text.bcm2835_mail_write
                0x00018af8       0x30 ./src/bcm2835.o
                0x00018af8                bcm2835_mail_write

.text.bcm2835_mail_read
                0x00018b28       0x30
 .text.bcm2835_mail_read
                0x00018b28       0x30 ./src/bcm2835.o
                0x00018b28                bcm2835_mail_read

.text.bcm2835_fb_init
                0x00018b58      0x164
 .text.bcm2835_fb_init
                0x00018b58      0x164 ./src/bcm2835.o
                0x00018b58                bcm2835_fb_init

.text.bcm2835_init
                0x00018cbc       0xd4
 .text.bcm2835_init
                0x00018cbc       0xd4 ./src/bcm2835.o
                0x00018cbc                bcm2835_init

.text.bcm2835_close
                0x00018d90        0x8
 .text.bcm2835_close
                0x00018d90        0x8 ./src/bcm2835.o
                0x00018d90                bcm2835_close

.text.DeviceNameService
                0x00018d98       0x64
 .text.DeviceNameService
                0x00018d98       0x64 ./src/devicenameservice.o
                0x00018d98                DeviceNameService

.text._DeviceNameService
                0x00018dfc       0x94
 .text._DeviceNameService
                0x00018dfc       0x94 ./src/devicenameservice.o
                0x00018dfc                _DeviceNameService

.text.DeviceNameServiceAddDevice
                0x00018e90      0x104
 .text.DeviceNameServiceAddDevice
                0x00018e90      0x104 ./src/devicenameservice.o
                0x00018e90                DeviceNameServiceAddDevice

.text.DeviceNameServiceGetDevice
                0x00018f94       0xdc
 .text.DeviceNameServiceGetDevice
                0x00018f94       0xdc ./src/devicenameservice.o
                0x00018f94                DeviceNameServiceGetDevice

.text.DeviceNameServiceGet
                0x00019070       0x38
 .text.DeviceNameServiceGet
                0x00019070       0x38 ./src/devicenameservice.o
                0x00019070                DeviceNameServiceGet

.text.DWHCIDeviceCompletionRoutine
                0x000190a8       0x34
 .text.DWHCIDeviceCompletionRoutine
                0x000190a8       0x34 ./src/dwhcidevice.o
                0x000190a8                DWHCIDeviceCompletionRoutine

.text.DWHCIDevice
                0x000190dc       0x58
 .text.DWHCIDevice
                0x000190dc       0x58 ./src/dwhcidevice.o
                0x000190dc                DWHCIDevice

.text._DWHCIDevice
                0x00019134        0x8
 .text._DWHCIDevice
                0x00019134        0x8 ./src/dwhcidevice.o
                0x00019134                _DWHCIDevice

.text.DWHCIDeviceEnableRootPort
                0x0001913c      0x120
 .text.DWHCIDeviceEnableRootPort
                0x0001913c      0x120 ./src/dwhcidevice.o
                0x0001913c                DWHCIDeviceEnableRootPort

.text.DWHCIDeviceReset
                0x0001925c      0x140
 .text.DWHCIDeviceReset
                0x0001925c      0x140 ./src/dwhcidevice.o
                0x0001925c                DWHCIDeviceReset

.text.DWHCIDeviceInitCore
                0x0001939c      0x290
 .text.DWHCIDeviceInitCore
                0x0001939c      0x290 ./src/dwhcidevice.o
                0x0001939c                DWHCIDeviceInitCore

.text.DWHCIDeviceEnableGlobalInterrupts
                0x0001962c       0x68
 .text.DWHCIDeviceEnableGlobalInterrupts
                0x0001962c       0x68 ./src/dwhcidevice.o
                0x0001962c                DWHCIDeviceEnableGlobalInterrupts

.text.DWHCIDeviceEnableCommonInterrupts
                0x00019694       0x5c
 .text.DWHCIDeviceEnableCommonInterrupts
                0x00019694       0x5c ./src/dwhcidevice.o
                0x00019694                DWHCIDeviceEnableCommonInterrupts

.text.DWHCIDeviceEnableHostInterrupts
                0x000196f0       0xd8
 .text.DWHCIDeviceEnableHostInterrupts
                0x000196f0       0xd8 ./src/dwhcidevice.o
                0x000196f0                DWHCIDeviceEnableHostInterrupts

.text.DWHCIDeviceEnableChannelInterrupt
                0x000197c8       0x78
 .text.DWHCIDeviceEnableChannelInterrupt
                0x000197c8       0x78 ./src/dwhcidevice.o
                0x000197c8                DWHCIDeviceEnableChannelInterrupt

.text.DWHCIDeviceDisableChannelInterrupt
                0x00019840       0x78
 .text.DWHCIDeviceDisableChannelInterrupt
                0x00019840       0x78 ./src/dwhcidevice.o
                0x00019840                DWHCIDeviceDisableChannelInterrupt

.text.DWHCIDeviceFlushTxFIFO
                0x000198b8      0x134
 .text.DWHCIDeviceFlushTxFIFO
                0x000198b8      0x134 ./src/dwhcidevice.o
                0x000198b8                DWHCIDeviceFlushTxFIFO

.text.DWHCIDeviceFlushRxFIFO
                0x000199ec      0x100
 .text.DWHCIDeviceFlushRxFIFO
                0x000199ec      0x100 ./src/dwhcidevice.o
                0x000199ec                DWHCIDeviceFlushRxFIFO

.text.DWHCIDeviceInitHost
                0x00019aec      0x2dc
 .text.DWHCIDeviceInitHost
                0x00019aec      0x2dc ./src/dwhcidevice.o
                0x00019aec                DWHCIDeviceInitHost

.text.DWHCIDeviceInitialize
                0x00019dc8      0x244
 .text.DWHCIDeviceInitialize
                0x00019dc8      0x244 ./src/dwhcidevice.o
                0x00019dc8                DWHCIDeviceInitialize

.text.DWHCIDeviceStartChannel
                0x0001a00c      0x3e0
 .text.DWHCIDeviceStartChannel
                0x0001a00c      0x3e0 ./src/dwhcidevice.o
                0x0001a00c                DWHCIDeviceStartChannel

.text.DWHCIDeviceStartTransaction
                0x0001a3ec      0x140
 .text.DWHCIDeviceStartTransaction
                0x0001a3ec      0x140 ./src/dwhcidevice.o
                0x0001a3ec                DWHCIDeviceStartTransaction

.text.DWHCIDeviceTimerHandler
                0x0001a52c      0x11c
 .text.DWHCIDeviceTimerHandler
                0x0001a52c      0x11c ./src/dwhcidevice.o
                0x0001a52c                DWHCIDeviceTimerHandler

.text.DWHCIDeviceTransferStageAsync
                0x0001a648      0x32c
 .text.DWHCIDeviceTransferStageAsync
                0x0001a648      0x32c ./src/dwhcidevice.o
                0x0001a648                DWHCIDeviceTransferStageAsync

.text.DWHCIDeviceSubmitAsyncRequest
                0x0001a974       0xf0
 .text.DWHCIDeviceSubmitAsyncRequest
                0x0001a974       0xf0 ./src/dwhcidevice.o
                0x0001a974                DWHCIDeviceSubmitAsyncRequest

.text.DWHCIDeviceTransferStage
                0x0001aa64       0xdc
 .text.DWHCIDeviceTransferStage
                0x0001aa64       0xdc ./src/dwhcidevice.o
                0x0001aa64                DWHCIDeviceTransferStage

.text.DWHCIDeviceSubmitBlockingRequest
                0x0001ab40      0x7a4
 .text.DWHCIDeviceSubmitBlockingRequest
                0x0001ab40      0x7a4 ./src/dwhcidevice.o
                0x0001ab40                DWHCIDeviceSubmitBlockingRequest

.text.DWHCIDeviceControlMessage
                0x0001b2e4       0xe0
 .text.DWHCIDeviceControlMessage
                0x0001b2e4       0xe0 ./src/dwhcidevice.o
                0x0001b2e4                DWHCIDeviceControlMessage

.text.DWHCIDeviceTransfer
                0x0001b3c4       0x90
 .text.DWHCIDeviceTransfer
                0x0001b3c4       0x90 ./src/dwhcidevice.o
                0x0001b3c4                DWHCIDeviceTransfer

.text.DWHCIDeviceGetDescriptor
                0x0001b454      0x10c
 .text.DWHCIDeviceGetDescriptor
                0x0001b454      0x10c ./src/dwhcidevice.o
                0x0001b454                DWHCIDeviceGetDescriptor

.text.DWHCIDeviceSetAddress
                0x0001b560      0x11c
 .text.DWHCIDeviceSetAddress
                0x0001b560      0x11c ./src/dwhcidevice.o
                0x0001b560                DWHCIDeviceSetAddress

.text.DWHCIDeviceSetConfiguration
                0x0001b67c      0x11c
 .text.DWHCIDeviceSetConfiguration
                0x0001b67c      0x11c ./src/dwhcidevice.o
                0x0001b67c                DWHCIDeviceSetConfiguration

.text.DWHCIDeviceChannelInterruptHandler
                0x0001b798      0x66c
 .text.DWHCIDeviceChannelInterruptHandler
                0x0001b798      0x66c ./src/dwhcidevice.o
                0x0001b798                DWHCIDeviceChannelInterruptHandler

.text.DWHCIDeviceInterruptHandler
                0x0001be04      0x118
 .text.DWHCIDeviceInterruptHandler
                0x0001be04      0x118 ./src/dwhcidevice.o
                0x0001be04                DWHCIDeviceInterruptHandler

.text.DWHCIDeviceAllocateChannel
                0x0001bf1c       0x94
 .text.DWHCIDeviceAllocateChannel
                0x0001bf1c       0x94 ./src/dwhcidevice.o
                0x0001bf1c                DWHCIDeviceAllocateChannel

.text.DWHCIDeviceFreeChannel
                0x0001bfb0       0x98
 .text.DWHCIDeviceFreeChannel
                0x0001bfb0       0x98 ./src/dwhcidevice.o
                0x0001bfb0                DWHCIDeviceFreeChannel

.text.DWHCIDeviceWaitForBit
                0x0001c048       0xec
 .text.DWHCIDeviceWaitForBit
                0x0001c048       0xec ./src/dwhcidevice.o
                0x0001c048                DWHCIDeviceWaitForBit

.text.DWHCIDeviceGetPortSpeed
                0x0001c134       0x70
 .text.DWHCIDeviceGetPortSpeed
                0x0001c134       0x70 ./src/dwhcidevice.o
                0x0001c134                DWHCIDeviceGetPortSpeed

.text.DWHCIDeviceOvercurrentDetected
                0x0001c1a4       0x70
 .text.DWHCIDeviceOvercurrentDetected
                0x0001c1a4       0x70 ./src/dwhcidevice.o
                0x0001c1a4                DWHCIDeviceOvercurrentDetected

.text.DWHCIDeviceDisableRootPort
                0x0001c214       0x68
 .text.DWHCIDeviceDisableRootPort
                0x0001c214       0x68 ./src/dwhcidevice.o
                0x0001c214                DWHCIDeviceDisableRootPort

.text.DWHCIDeviceDumpRegister
                0x0001c27c       0x7c
 .text.DWHCIDeviceDumpRegister
                0x0001c27c       0x7c ./src/dwhcidevice.o
                0x0001c27c                DWHCIDeviceDumpRegister

.text.DWHCIDeviceDumpStatus
                0x0001c2f8      0x968
 .text.DWHCIDeviceDumpStatus
                0x0001c2f8      0x968 ./src/dwhcidevice.o
                0x0001c2f8                DWHCIDeviceDumpStatus

.text.DWHCIFrameSchedulerNonPeriodicWaitForFrame
                0x0001cc60        0x4
 .text.DWHCIFrameSchedulerNonPeriodicWaitForFrame
                0x0001cc60        0x4 ./src/dwhciframeschednper.o
                0x0001cc60                DWHCIFrameSchedulerNonPeriodicWaitForFrame

.text.DWHCIFrameSchedulerNonPeriodicIsOddFrame
                0x0001cc64        0x8
 .text.DWHCIFrameSchedulerNonPeriodicIsOddFrame
                0x0001cc64        0x8 ./src/dwhciframeschednper.o
                0x0001cc64                DWHCIFrameSchedulerNonPeriodicIsOddFrame

.text._DWHCIFrameSchedulerNonPeriodic
                0x0001cc6c       0x34
 .text._DWHCIFrameSchedulerNonPeriodic
                0x0001cc6c       0x34 ./src/dwhciframeschednper.o
                0x0001cc6c                _DWHCIFrameSchedulerNonPeriodic

.text.DWHCIFrameSchedulerNonPeriodicStartSplit
                0x0001cca0       0x34
 .text.DWHCIFrameSchedulerNonPeriodicStartSplit
                0x0001cca0       0x34 ./src/dwhciframeschednper.o
                0x0001cca0                DWHCIFrameSchedulerNonPeriodicStartSplit

.text.DWHCIFrameSchedulerNonPeriodicCompleteSplit
                0x0001ccd4       0xa0
 .text.DWHCIFrameSchedulerNonPeriodicCompleteSplit
                0x0001ccd4       0xa0 ./src/dwhciframeschednper.o
                0x0001ccd4                DWHCIFrameSchedulerNonPeriodicCompleteSplit

.text.DWHCIFrameSchedulerNonPeriodicTransactionComplete
                0x0001cd74      0x130
 .text.DWHCIFrameSchedulerNonPeriodicTransactionComplete
                0x0001cd74      0x130 ./src/dwhciframeschednper.o
                0x0001cd74                DWHCIFrameSchedulerNonPeriodicTransactionComplete

.text.DWHCIFrameSchedulerNonPeriodic
                0x0001cea4       0x7c
 .text.DWHCIFrameSchedulerNonPeriodic
                0x0001cea4       0x7c ./src/dwhciframeschednper.o
                0x0001cea4                DWHCIFrameSchedulerNonPeriodic

.text._DWHCIFrameSchedulerNoSplit
                0x0001cf20        0x4
 .text._DWHCIFrameSchedulerNoSplit
                0x0001cf20        0x4 ./src/dwhciframeschednsplit.o
                0x0001cf20                _DWHCIFrameSchedulerNoSplit

.text.DWHCIFrameSchedulerNoSplitStartSplit
                0x0001cf24       0x18
 .text.DWHCIFrameSchedulerNoSplitStartSplit
                0x0001cf24       0x18 ./src/dwhciframeschednsplit.o
                0x0001cf24                DWHCIFrameSchedulerNoSplitStartSplit

.text.DWHCIFrameSchedulerNoSplitCompleteSplit
                0x0001cf3c       0x24
 .text.DWHCIFrameSchedulerNoSplitCompleteSplit
                0x0001cf3c       0x24 ./src/dwhciframeschednsplit.o
                0x0001cf3c                DWHCIFrameSchedulerNoSplitCompleteSplit

.text.DWHCIFrameSchedulerNoSplitTransactionComplete
                0x0001cf60       0x18
 .text.DWHCIFrameSchedulerNoSplitTransactionComplete
                0x0001cf60       0x18 ./src/dwhciframeschednsplit.o
                0x0001cf60                DWHCIFrameSchedulerNoSplitTransactionComplete

.text.DWHCIFrameSchedulerNoSplitIsOddFrame
                0x0001cf78       0x34
 .text.DWHCIFrameSchedulerNoSplitIsOddFrame
                0x0001cf78       0x34 ./src/dwhciframeschednsplit.o
                0x0001cf78                DWHCIFrameSchedulerNoSplitIsOddFrame

.text.DWHCIFrameSchedulerNoSplitWaitForFrame
                0x0001cfac       0x84
 .text.DWHCIFrameSchedulerNoSplitWaitForFrame
                0x0001cfac       0x84 ./src/dwhciframeschednsplit.o
                0x0001cfac                DWHCIFrameSchedulerNoSplitWaitForFrame

.text.DWHCIFrameSchedulerNoSplit
                0x0001d030       0x84
 .text.DWHCIFrameSchedulerNoSplit
                0x0001d030       0x84 ./src/dwhciframeschednsplit.o
                0x0001d030                DWHCIFrameSchedulerNoSplit

.text._DWHCIFrameSchedulerPeriodic
                0x0001d0b4       0x34
 .text._DWHCIFrameSchedulerPeriodic
                0x0001d0b4       0x34 ./src/dwhciframeschedper.o
                0x0001d0b4                _DWHCIFrameSchedulerPeriodic

.text.DWHCIFrameSchedulerPeriodicStartSplit
                0x0001d0e8       0x3c
 .text.DWHCIFrameSchedulerPeriodicStartSplit
                0x0001d0e8       0x3c ./src/dwhciframeschedper.o
                0x0001d0e8                DWHCIFrameSchedulerPeriodicStartSplit

.text.DWHCIFrameSchedulerPeriodicIsOddFrame
                0x0001d124       0x34
 .text.DWHCIFrameSchedulerPeriodicIsOddFrame
                0x0001d124       0x34 ./src/dwhciframeschedper.o
                0x0001d124                DWHCIFrameSchedulerPeriodicIsOddFrame

.text.DWHCIFrameSchedulerPeriodicWaitForFrame
                0x0001d158       0x90
 .text.DWHCIFrameSchedulerPeriodicWaitForFrame
                0x0001d158       0x90 ./src/dwhciframeschedper.o
                0x0001d158                DWHCIFrameSchedulerPeriodicWaitForFrame

.text.DWHCIFrameSchedulerPeriodicCompleteSplit
                0x0001d1e8       0xc0
 .text.DWHCIFrameSchedulerPeriodicCompleteSplit
                0x0001d1e8       0xc0 ./src/dwhciframeschedper.o
                0x0001d1e8                DWHCIFrameSchedulerPeriodicCompleteSplit

.text.DWHCIFrameSchedulerPeriodicTransactionComplete
                0x0001d2a8      0x128
 .text.DWHCIFrameSchedulerPeriodicTransactionComplete
                0x0001d2a8      0x128 ./src/dwhciframeschedper.o
                0x0001d2a8                DWHCIFrameSchedulerPeriodicTransactionComplete

.text.DWHCIFrameSchedulerPeriodic
                0x0001d3d0       0x84
 .text.DWHCIFrameSchedulerPeriodic
                0x0001d3d0       0x84 ./src/dwhciframeschedper.o
                0x0001d3d0                DWHCIFrameSchedulerPeriodic

.text.DWHCIRegister
                0x0001d454       0x3c
 .text.DWHCIRegister
                0x0001d454       0x3c ./src/dwhciregister.o
                0x0001d454                DWHCIRegister

.text.DWHCIRegister2
                0x0001d490       0x44
 .text.DWHCIRegister2
                0x0001d490       0x44 ./src/dwhciregister.o
                0x0001d490                DWHCIRegister2

.text._DWHCIRegister
                0x0001d4d4       0x34
 .text._DWHCIRegister
                0x0001d4d4       0x34 ./src/dwhciregister.o
                0x0001d4d4                _DWHCIRegister

.text.DWHCIRegisterRead
                0x0001d508       0x40
 .text.DWHCIRegisterRead
                0x0001d508       0x40 ./src/dwhciregister.o
                0x0001d508                DWHCIRegisterRead

.text.DWHCIRegisterWrite
                0x0001d548       0x5c
 .text.DWHCIRegisterWrite
                0x0001d548       0x5c ./src/dwhciregister.o
                0x0001d548                DWHCIRegisterWrite

.text.DWHCIRegisterGet
                0x0001d5a4       0x54
 .text.DWHCIRegisterGet
                0x0001d5a4       0x54 ./src/dwhciregister.o
                0x0001d5a4                DWHCIRegisterGet

.text.DWHCIRegisterSet
                0x0001d5f8       0x3c
 .text.DWHCIRegisterSet
                0x0001d5f8       0x3c ./src/dwhciregister.o
                0x0001d5f8                DWHCIRegisterSet

.text.DWHCIRegisterIsSet
                0x0001d634       0x64
 .text.DWHCIRegisterIsSet
                0x0001d634       0x64 ./src/dwhciregister.o
                0x0001d634                DWHCIRegisterIsSet

.text.DWHCIRegisterAnd
                0x0001d698       0x60
 .text.DWHCIRegisterAnd
                0x0001d698       0x60 ./src/dwhciregister.o
                0x0001d698                DWHCIRegisterAnd

.text.DWHCIRegisterOr
                0x0001d6f8       0x60
 .text.DWHCIRegisterOr
                0x0001d6f8       0x60 ./src/dwhciregister.o
                0x0001d6f8                DWHCIRegisterOr

.text.DWHCIRegisterClearBit
                0x0001d758       0x88
 .text.DWHCIRegisterClearBit
                0x0001d758       0x88 ./src/dwhciregister.o
                0x0001d758                DWHCIRegisterClearBit

.text.DWHCIRegisterSetBit
                0x0001d7e0       0x88
 .text.DWHCIRegisterSetBit
                0x0001d7e0       0x88 ./src/dwhciregister.o
                0x0001d7e0                DWHCIRegisterSetBit

.text.DWHCIRegisterClearAll
                0x0001d868       0x3c
 .text.DWHCIRegisterClearAll
                0x0001d868       0x3c ./src/dwhciregister.o
                0x0001d868                DWHCIRegisterClearAll

.text.DWHCIRegisterSetAll
                0x0001d8a4       0x3c
 .text.DWHCIRegisterSetAll
                0x0001d8a4       0x3c ./src/dwhciregister.o
                0x0001d8a4                DWHCIRegisterSetAll

.text.DWHCIRegisterDump
                0x0001d8e0       0x88
 .text.DWHCIRegisterDump
                0x0001d8e0       0x88 ./src/dwhciregister.o
                0x0001d8e0                DWHCIRegisterDump

.text.DWHCIRootPort
                0x0001d968       0x5c
 .text.DWHCIRootPort
                0x0001d968       0x5c ./src/dwhcirootport.o
                0x0001d968                DWHCIRootPort

.text._DWHCIRootPort
                0x0001d9c4       0x54
 .text._DWHCIRootPort
                0x0001d9c4       0x54 ./src/dwhcirootport.o
                0x0001d9c4                _DWHCIRootPort

.text.DWHCIRootPortInitialize
                0x0001da18      0x278
 .text.DWHCIRootPortInitialize
                0x0001da18      0x278 ./src/dwhcirootport.o
                0x0001da18                DWHCIRootPortInitialize

.text.DWHCITransferStageData
                0x0001dc90      0x3c4
 .text.DWHCITransferStageData
                0x0001dc90      0x3c4 ./src/dwhcixferstagedata.o
                0x0001dc90                DWHCITransferStageData

.text._DWHCITransferStageData
                0x0001e054       0x7c
 .text._DWHCITransferStageData
                0x0001e054       0x7c ./src/dwhcixferstagedata.o
                0x0001e054                _DWHCITransferStageData

.text.DWHCITransferStageDataTransactionComplete
                0x0001e0d0      0x190
 .text.DWHCITransferStageDataTransactionComplete
                0x0001e0d0      0x190 ./src/dwhcixferstagedata.o
                0x0001e0d0                DWHCITransferStageDataTransactionComplete

.text.DWHCITransferStageDataSetSplitComplete
                0x0001e260       0x58
 .text.DWHCITransferStageDataSetSplitComplete
                0x0001e260       0x58 ./src/dwhcixferstagedata.o
                0x0001e260                DWHCITransferStageDataSetSplitComplete

.text.DWHCITransferStageDataSetState
                0x0001e2b8       0x38
 .text.DWHCITransferStageDataSetState
                0x0001e2b8       0x38 ./src/dwhcixferstagedata.o
                0x0001e2b8                DWHCITransferStageDataSetState

.text.DWHCITransferStageDataGetState
                0x0001e2f0       0x34
 .text.DWHCITransferStageDataGetState
                0x0001e2f0       0x34 ./src/dwhcixferstagedata.o
                0x0001e2f0                DWHCITransferStageDataGetState

.text.DWHCITransferStageDataSetSubState
                0x0001e324       0x38
 .text.DWHCITransferStageDataSetSubState
                0x0001e324       0x38 ./src/dwhcixferstagedata.o
                0x0001e324                DWHCITransferStageDataSetSubState

.text.DWHCITransferStageDataGetSubState
                0x0001e35c       0x34
 .text.DWHCITransferStageDataGetSubState
                0x0001e35c       0x34 ./src/dwhcixferstagedata.o
                0x0001e35c                DWHCITransferStageDataGetSubState

.text.DWHCITransferStageDataBeginSplitCycle
                0x0001e390        0x8
 .text.DWHCITransferStageDataBeginSplitCycle
                0x0001e390        0x8 ./src/dwhcixferstagedata.o
                0x0001e390                DWHCITransferStageDataBeginSplitCycle

.text.DWHCITransferStageDataGetChannelNumber
                0x0001e398       0x34
 .text.DWHCITransferStageDataGetChannelNumber
                0x0001e398       0x34 ./src/dwhcixferstagedata.o
                0x0001e398                DWHCITransferStageDataGetChannelNumber

.text.DWHCITransferStageDataIsPeriodic
                0x0001e3cc       0x70
 .text.DWHCITransferStageDataIsPeriodic
                0x0001e3cc       0x70 ./src/dwhcixferstagedata.o
                0x0001e3cc                DWHCITransferStageDataIsPeriodic

.text.DWHCITransferStageDataGetDeviceAddress
                0x0001e43c       0x60
 .text.DWHCITransferStageDataGetDeviceAddress
                0x0001e43c       0x60 ./src/dwhcixferstagedata.o
                0x0001e43c                DWHCITransferStageDataGetDeviceAddress

.text.DWHCITransferStageDataGetEndpointType
                0x0001e49c       0xa4
 .text.DWHCITransferStageDataGetEndpointType
                0x0001e49c       0xa4 ./src/dwhcixferstagedata.o
                0x0001e49c                DWHCITransferStageDataGetEndpointType

.text.DWHCITransferStageDataGetEndpointNumber
                0x0001e540       0x60
 .text.DWHCITransferStageDataGetEndpointNumber
                0x0001e540       0x60 ./src/dwhcixferstagedata.o
                0x0001e540                DWHCITransferStageDataGetEndpointNumber

.text.DWHCITransferStageDataGetMaxPacketSize
                0x0001e5a0       0x34
 .text.DWHCITransferStageDataGetMaxPacketSize
                0x0001e5a0       0x34 ./src/dwhcixferstagedata.o
                0x0001e5a0                DWHCITransferStageDataGetMaxPacketSize

.text.DWHCITransferStageDataGetSpeed
                0x0001e5d4       0x34
 .text.DWHCITransferStageDataGetSpeed
                0x0001e5d4       0x34 ./src/dwhcixferstagedata.o
                0x0001e5d4                DWHCITransferStageDataGetSpeed

.text.DWHCITransferStageDataGetPID
                0x0001e608       0x98
 .text.DWHCITransferStageDataGetPID
                0x0001e608       0x98 ./src/dwhcixferstagedata.o
                0x0001e608                DWHCITransferStageDataGetPID

.text.DWHCITransferStageDataIsDirectionIn
                0x0001e6a0       0x34
 .text.DWHCITransferStageDataIsDirectionIn
                0x0001e6a0       0x34 ./src/dwhcixferstagedata.o
                0x0001e6a0                DWHCITransferStageDataIsDirectionIn

.text.DWHCITransferStageDataIsStatusStage
                0x0001e6d4       0x34
 .text.DWHCITransferStageDataIsStatusStage
                0x0001e6d4       0x34 ./src/dwhcixferstagedata.o
                0x0001e6d4                DWHCITransferStageDataIsStatusStage

.text.DWHCITransferStageDataGetDMAAddress
                0x0001e708       0x54
 .text.DWHCITransferStageDataGetDMAAddress
                0x0001e708       0x54 ./src/dwhcixferstagedata.o
                0x0001e708                DWHCITransferStageDataGetDMAAddress

.text.DWHCITransferStageDataGetBytesToTransfer
                0x0001e75c       0x34
 .text.DWHCITransferStageDataGetBytesToTransfer
                0x0001e75c       0x34 ./src/dwhcixferstagedata.o
                0x0001e75c                DWHCITransferStageDataGetBytesToTransfer

.text.DWHCITransferStageDataGetPacketsToTransfer
                0x0001e790       0x34
 .text.DWHCITransferStageDataGetPacketsToTransfer
                0x0001e790       0x34 ./src/dwhcixferstagedata.o
                0x0001e790                DWHCITransferStageDataGetPacketsToTransfer

.text.DWHCITransferStageDataIsSplit
                0x0001e7c4       0x34
 .text.DWHCITransferStageDataIsSplit
                0x0001e7c4       0x34 ./src/dwhcixferstagedata.o
                0x0001e7c4                DWHCITransferStageDataIsSplit

.text.DWHCITransferStageDataIsSplitComplete
                0x0001e7f8       0x54
 .text.DWHCITransferStageDataIsSplitComplete
                0x0001e7f8       0x54 ./src/dwhcixferstagedata.o
                0x0001e7f8                DWHCITransferStageDataIsSplitComplete

.text.DWHCITransferStageDataGetHubAddress
                0x0001e84c       0x90
 .text.DWHCITransferStageDataGetHubAddress
                0x0001e84c       0x90 ./src/dwhcixferstagedata.o
                0x0001e84c                DWHCITransferStageDataGetHubAddress

.text.DWHCITransferStageDataGetHubPortAddress
                0x0001e8dc       0x90
 .text.DWHCITransferStageDataGetHubPortAddress
                0x0001e8dc       0x90 ./src/dwhcixferstagedata.o
                0x0001e8dc                DWHCITransferStageDataGetHubPortAddress

.text.DWHCITransferStageDataGetSplitPosition
                0x0001e96c       0x54
 .text.DWHCITransferStageDataGetSplitPosition
                0x0001e96c       0x54 ./src/dwhcixferstagedata.o
                0x0001e96c                DWHCITransferStageDataGetSplitPosition

.text.DWHCITransferStageDataGetStatusMask
                0x0001e9c0       0x8c
 .text.DWHCITransferStageDataGetStatusMask
                0x0001e9c0       0x8c ./src/dwhcixferstagedata.o
                0x0001e9c0                DWHCITransferStageDataGetStatusMask

.text.DWHCITransferStageDataGetTransactionStatus
                0x0001ea4c       0x54
 .text.DWHCITransferStageDataGetTransactionStatus
                0x0001ea4c       0x54 ./src/dwhcixferstagedata.o
                0x0001ea4c                DWHCITransferStageDataGetTransactionStatus

.text.DWHCITransferStageDataIsStageComplete
                0x0001eaa0       0x38
 .text.DWHCITransferStageDataIsStageComplete
                0x0001eaa0       0x38 ./src/dwhcixferstagedata.o
                0x0001eaa0                DWHCITransferStageDataIsStageComplete

.text.DWHCITransferStageDataGetResultLen
                0x0001ead8       0x3c
 .text.DWHCITransferStageDataGetResultLen
                0x0001ead8       0x3c ./src/dwhcixferstagedata.o
                0x0001ead8                DWHCITransferStageDataGetResultLen

.text.DWHCITransferStageDataGetURB
                0x0001eb14       0x54
 .text.DWHCITransferStageDataGetURB
                0x0001eb14       0x54 ./src/dwhcixferstagedata.o
                0x0001eb14                DWHCITransferStageDataGetURB

.text.DWHCITransferStageDataGetFrameScheduler
                0x0001eb68       0x34
 .text.DWHCITransferStageDataGetFrameScheduler
                0x0001eb68       0x34 ./src/dwhcixferstagedata.o
                0x0001eb68                DWHCITransferStageDataGetFrameScheduler

.text.KeyMap    0x0001eb9c       0x54
 .text.KeyMap   0x0001eb9c       0x54 ./src/keymap.o
                0x0001eb9c                KeyMap

.text._KeyMap   0x0001ebf0        0x4
 .text._KeyMap  0x0001ebf0        0x4 ./src/keymap.o
                0x0001ebf0                _KeyMap

.text.KeyMapClearTable
                0x0001ebf4       0x60
 .text.KeyMapClearTable
                0x0001ebf4       0x60 ./src/keymap.o
                0x0001ebf4                KeyMapClearTable

.text.KeyMapSetEntry
                0x0001ec54       0x7c
 .text.KeyMapSetEntry
                0x0001ec54       0x7c ./src/keymap.o
                0x0001ec54                KeyMapSetEntry

.text.KeyMapTranslate
                0x0001ecd0      0x138
 .text.KeyMapTranslate
                0x0001ecd0      0x138 ./src/keymap.o
                0x0001ecd0                KeyMapTranslate

.text.KeyMapGetString
                0x0001ee08       0xf8
 .text.KeyMapGetString
                0x0001ee08       0xf8 ./src/keymap.o
                0x0001ee08                KeyMapGetString

.text.KeyMapGetLEDStatus
                0x0001ef00       0x5c
 .text.KeyMapGetLEDStatus
                0x0001ef00       0x5c ./src/keymap.o
                0x0001ef00                KeyMapGetLEDStatus

.text.MACAddress
                0x0001ef5c       0x34
 .text.MACAddress
                0x0001ef5c       0x34 ./src/macaddress.o
                0x0001ef5c                MACAddress

.text.MACAddress2
                0x0001ef90       0x88
 .text.MACAddress2
                0x0001ef90       0x88 ./src/macaddress.o
                0x0001ef90                MACAddress2

.text._MACAddress
                0x0001f018       0x34
 .text._MACAddress
                0x0001f018       0x34 ./src/macaddress.o
                0x0001f018                _MACAddress

.text.MACAddressIsEqual
                0x0001f04c       0xb8
 .text.MACAddressIsEqual
                0x0001f04c       0xb8 ./src/macaddress.o
                0x0001f04c                MACAddressIsEqual

.text.MACAddressSet
                0x0001f104       0x6c
 .text.MACAddressSet
                0x0001f104       0x6c ./src/macaddress.o
                0x0001f104                MACAddressSet

.text.MACAddressSetBroadcast
                0x0001f170       0x44
 .text.MACAddressSetBroadcast
                0x0001f170       0x44 ./src/macaddress.o
                0x0001f170                MACAddressSetBroadcast

.text.MACAddressGet
                0x0001f1b4       0x54
 .text.MACAddressGet
                0x0001f1b4       0x54 ./src/macaddress.o
                0x0001f1b4                MACAddressGet

.text.MACAddressCopyTo
                0x0001f208       0x90
 .text.MACAddressCopyTo
                0x0001f208       0x90 ./src/macaddress.o
                0x0001f208                MACAddressCopyTo

.text.MACAddressIsBroadcast
                0x0001f298       0xa8
 .text.MACAddressIsBroadcast
                0x0001f298       0xa8 ./src/macaddress.o
                0x0001f298                MACAddressIsBroadcast

.text.MACAddressGetSize
                0x0001f340        0x8
 .text.MACAddressGetSize
                0x0001f340        0x8 ./src/macaddress.o
                0x0001f340                MACAddressGetSize

.text.MACAddressFormat
                0x0001f348       0xc0
 .text.MACAddressFormat
                0x0001f348       0xc0 ./src/macaddress.o
                0x0001f348                MACAddressFormat

.text.not_main  0x0001f408      0x14c
 .text.not_main
                0x0001f408      0x14c ./src/main.o
                0x0001f408                not_main

.text.uart_lcr  0x0001f554        0xc
 .text.uart_lcr
                0x0001f554        0xc ./src/periph.o
                0x0001f554                uart_lcr

.text.uart_recv
                0x0001f560       0x2c
 .text.uart_recv
                0x0001f560       0x2c ./src/periph.o
                0x0001f560                uart_recv

.text.uart_check
                0x0001f58c       0x18
 .text.uart_check
                0x0001f58c       0x18 ./src/periph.o
                0x0001f58c                uart_check

.text.uart_send
                0x0001f5a4       0x30
 .text.uart_send
                0x0001f5a4       0x30 ./src/periph.o
                0x0001f5a4                uart_send

.text.uart_flush
                0x0001f5d4       0x1c
 .text.uart_flush
                0x0001f5d4       0x1c ./src/periph.o
                0x0001f5d4                uart_flush

.text.hexstrings
                0x0001f5f0       0x78
 .text.hexstrings
                0x0001f5f0       0x78 ./src/periph.o
                0x0001f5f0                hexstrings

.text.hexstring
                0x0001f668       0xc0
 .text.hexstring
                0x0001f668       0xc0 ./src/periph.o
                0x0001f668                hexstring

.text.uart_sendC
                0x0001f728       0x94
 .text.uart_sendC
                0x0001f728       0x94 ./src/periph.o
                0x0001f728                uart_sendC

.text.uart_init
                0x0001f7bc      0x118
 .text.uart_init
                0x0001f7bc      0x118 ./src/periph.o
                0x0001f7bc                uart_init

.text.prepare_led_act
                0x0001f8d4       0xb0
 .text.prepare_led_act
                0x0001f8d4       0xb0 ./src/periph.o
                0x0001f8d4                prepare_led_act

.text.prepare_led_pwr
                0x0001f984       0xb0
 .text.prepare_led_pwr
                0x0001f984       0xb0 ./src/periph.o
                0x0001f984                prepare_led_pwr

.text.led_act_ON
                0x0001fa34       0x10
 .text.led_act_ON
                0x0001fa34       0x10 ./src/periph.o
                0x0001fa34                led_act_ON

.text.led_act_OFF
                0x0001fa44       0x10
 .text.led_act_OFF
                0x0001fa44       0x10 ./src/periph.o
                0x0001fa44                led_act_OFF

.text.led_pwr_ON
                0x0001fa54       0x10
 .text.led_pwr_ON
                0x0001fa54       0x10 ./src/periph.o
                0x0001fa54                led_pwr_ON

.text.led_pwr_OFF
                0x0001fa64       0x10
 .text.led_pwr_OFF
                0x0001fa64       0x10 ./src/periph.o
                0x0001fa64                led_pwr_OFF

.text.SMSC951xDevice
                0x0001fa74       0x80
 .text.SMSC951xDevice
                0x0001fa74       0x80 ./src/smsc951x.o
                0x0001fa74                SMSC951xDevice

.text._SMSC951xDevice
                0x0001faf4       0x8c
 .text._SMSC951xDevice
                0x0001faf4       0x8c ./src/smsc951x.o
                0x0001faf4                _SMSC951xDevice

.text.SMSC951xDeviceGetMACAddress
                0x0001fb80       0x34
 .text.SMSC951xDeviceGetMACAddress
                0x0001fb80       0x34 ./src/smsc951x.o
                0x0001fb80                SMSC951xDeviceGetMACAddress

.text.SMSC951xDeviceSendFrame
                0x0001fbb4      0x100
 .text.SMSC951xDeviceSendFrame
                0x0001fbb4      0x100 ./src/smsc951x.o
                0x0001fbb4                SMSC951xDeviceSendFrame

.text.SMSC951xDeviceReceiveFrame
                0x0001fcb4      0x1b4
 .text.SMSC951xDeviceReceiveFrame
                0x0001fcb4      0x1b4 ./src/smsc951x.o
                0x0001fcb4                SMSC951xDeviceReceiveFrame

.text.SMSC951xDeviceWriteReg
                0x0001fe68       0x8c
 .text.SMSC951xDeviceWriteReg
                0x0001fe68       0x8c ./src/smsc951x.o
                0x0001fe68                SMSC951xDeviceWriteReg

.text.SMSC951xDeviceConfigure
                0x0001fef4      0x3dc
 .text.SMSC951xDeviceConfigure
                0x0001fef4      0x3dc ./src/smsc951x.o
                0x0001fef4                SMSC951xDeviceConfigure

.text.SMSC951xDeviceReadReg
                0x000202d0       0x8c
 .text.SMSC951xDeviceReadReg
                0x000202d0       0x8c ./src/smsc951x.o
                0x000202d0                SMSC951xDeviceReadReg

.text.SMSC951xDeviceDumpReg
                0x0002035c       0xe8
 .text.SMSC951xDeviceDumpReg
                0x0002035c       0xe8 ./src/smsc951x.o
                0x0002035c                SMSC951xDeviceDumpReg

.text.SMSC951xDeviceDumpRegs
                0x00020444     0x10b8
 .text.SMSC951xDeviceDumpRegs
                0x00020444     0x10b8 ./src/smsc951x.o
                0x00020444                SMSC951xDeviceDumpRegs

.text.uspi_EnterCritical
                0x000214fc       0x3c
 .text.uspi_EnterCritical
                0x000214fc       0x3c ./src/synchronize.o
                0x000214fc                uspi_EnterCritical

.text.uspi_LeaveCritical
                0x00021538       0x68
 .text.uspi_LeaveCritical
                0x00021538       0x68 ./src/synchronize.o
                0x00021538                uspi_LeaveCritical

.text.uspi_CleanAndInvalidateDataCacheRange
                0x000215a0       0x30
 .text.uspi_CleanAndInvalidateDataCacheRange
                0x000215a0       0x30 ./src/synchronize.o
                0x000215a0                uspi_CleanAndInvalidateDataCacheRange

.text.USBConfigurationParser
                0x000215d0      0x150
 .text.USBConfigurationParser
                0x000215d0      0x150 ./src/usbconfigparser.o
                0x000215d0                USBConfigurationParser

.text._USBConfigurationParser
                0x00021720       0x34
 .text._USBConfigurationParser
                0x00021720       0x34 ./src/usbconfigparser.o
                0x00021720                _USBConfigurationParser

.text.USBConfigurationParserIsValid
                0x00021754       0x34
 .text.USBConfigurationParserIsValid
                0x00021754       0x34 ./src/usbconfigparser.o
                0x00021754                USBConfigurationParserIsValid

.text.USBConfigurationParserGetDescriptor
                0x00021788       0xf8
 .text.USBConfigurationParserGetDescriptor
                0x00021788       0xf8 ./src/usbconfigparser.o
                0x00021788                USBConfigurationParserGetDescriptor

.text.USBConfigurationParserError
                0x00021880       0x84
 .text.USBConfigurationParserError
                0x00021880       0x84 ./src/usbconfigparser.o
                0x00021880                USBConfigurationParserError

.text.USBDeviceConfigure
                0x00021904       0xd4
 .text.USBDeviceConfigure
                0x00021904       0xd4 ./src/usbdevice.o
                0x00021904                USBDeviceConfigure

.text.USBDevice
                0x000219d8      0x138
 .text.USBDevice
                0x000219d8      0x138 ./src/usbdevice.o
                0x000219d8                USBDevice

.text.USBDeviceCopy
                0x00021b10      0x1fc
 .text.USBDeviceCopy
                0x00021b10      0x1fc ./src/usbdevice.o
                0x00021b10                USBDeviceCopy

.text._USBDevice
                0x00021d0c       0xb8
 .text._USBDevice
                0x00021d0c       0xb8 ./src/usbdevice.o
                0x00021d0c                _USBDevice

.text.USBDeviceGetName
                0x00021dc4      0x1c4
 .text.USBDeviceGetName
                0x00021dc4      0x1c4 ./src/usbdevice.o
                0x00021dc4                USBDeviceGetName

.text.USBDeviceGetAddress
                0x00021f88       0x34
 .text.USBDeviceGetAddress
                0x00021f88       0x34 ./src/usbdevice.o
                0x00021f88                USBDeviceGetAddress

.text.USBDeviceGetSpeed
                0x00021fbc       0x34
 .text.USBDeviceGetSpeed
                0x00021fbc       0x34 ./src/usbdevice.o
                0x00021fbc                USBDeviceGetSpeed

.text.USBDeviceGetHubAddress
                0x00021ff0       0x34
 .text.USBDeviceGetHubAddress
                0x00021ff0       0x34 ./src/usbdevice.o
                0x00021ff0                USBDeviceGetHubAddress

.text.USBDeviceGetHubPortNumber
                0x00022024       0x34
 .text.USBDeviceGetHubPortNumber
                0x00022024       0x34 ./src/usbdevice.o
                0x00022024                USBDeviceGetHubPortNumber

.text.USBDeviceGetEndpoint0
                0x00022058       0x54
 .text.USBDeviceGetEndpoint0
                0x00022058       0x54 ./src/usbdevice.o
                0x00022058                USBDeviceGetEndpoint0

.text.USBDeviceGetHost
                0x000220ac       0x54
 .text.USBDeviceGetHost
                0x000220ac       0x54 ./src/usbdevice.o
                0x000220ac                USBDeviceGetHost

.text.USBDeviceGetDeviceDescriptor
                0x00022100       0x54
 .text.USBDeviceGetDeviceDescriptor
                0x00022100       0x54 ./src/usbdevice.o
                0x00022100                USBDeviceGetDeviceDescriptor

.text.USBDeviceGetConfigurationDescriptor
                0x00022154       0x54
 .text.USBDeviceGetConfigurationDescriptor
                0x00022154       0x54 ./src/usbdevice.o
                0x00022154                USBDeviceGetConfigurationDescriptor

.text.USBDeviceGetDescriptor
                0x000221a8       0x6c
 .text.USBDeviceGetDescriptor
                0x000221a8       0x6c ./src/usbdevice.o
                0x000221a8                USBDeviceGetDescriptor

.text.USBDeviceConfigurationError
                0x00022214       0x6c
 .text.USBDeviceConfigurationError
                0x00022214       0x6c ./src/usbdevice.o
                0x00022214                USBDeviceConfigurationError

.text.USBDeviceInitialize
                0x00022280      0x48c
 .text.USBDeviceInitialize
                0x00022280      0x48c ./src/usbdevice.o
                0x00022280                USBDeviceInitialize

.text.USBDeviceSetAddress
                0x0002270c       0x5c
 .text.USBDeviceSetAddress
                0x0002270c       0x5c ./src/usbdevice.o
                0x0002270c                USBDeviceSetAddress

.text.GetDevice
                0x00022768      0x28c
 .text.GetDevice
                0x00022768      0x28c ./src/usbdevicefactory.o
                0x00022768                GetDevice

.text.USBDeviceFactoryGetDevice
                0x000229f4       0x84
 .text.USBDeviceFactoryGetDevice
                0x000229f4       0x84 ./src/usbdevicefactory.o
                0x000229f4                USBDeviceFactoryGetDevice

.text.USBEndpoint
                0x00022a78       0x78
 .text.USBEndpoint
                0x00022a78       0x78 ./src/usbendpoint.o
                0x00022a78                USBEndpoint

.text.USBEndpoint2
                0x00022af0      0x1cc
 .text.USBEndpoint2
                0x00022af0      0x1cc ./src/usbendpoint.o
                0x00022af0                USBEndpoint2

.text.USBEndpointCopy
                0x00022cbc       0xac
 .text.USBEndpointCopy
                0x00022cbc       0xac ./src/usbendpoint.o
                0x00022cbc                USBEndpointCopy

.text._USBEndpoint
                0x00022d68       0x34
 .text._USBEndpoint
                0x00022d68       0x34 ./src/usbendpoint.o
                0x00022d68                _USBEndpoint

.text.USBEndpointGetDevice
                0x00022d9c       0x54
 .text.USBEndpointGetDevice
                0x00022d9c       0x54 ./src/usbendpoint.o
                0x00022d9c                USBEndpointGetDevice

.text.USBEndpointGetNumber
                0x00022df0       0x34
 .text.USBEndpointGetNumber
                0x00022df0       0x34 ./src/usbendpoint.o
                0x00022df0                USBEndpointGetNumber

.text.USBEndpointGetType
                0x00022e24       0x34
 .text.USBEndpointGetType
                0x00022e24       0x34 ./src/usbendpoint.o
                0x00022e24                USBEndpointGetType

.text.USBEndpointIsDirectionIn
                0x00022e58       0x34
 .text.USBEndpointIsDirectionIn
                0x00022e58       0x34 ./src/usbendpoint.o
                0x00022e58                USBEndpointIsDirectionIn

.text.USBEndpointSetMaxPacketSize
                0x00022e8c       0x38
 .text.USBEndpointSetMaxPacketSize
                0x00022e8c       0x38 ./src/usbendpoint.o
                0x00022e8c                USBEndpointSetMaxPacketSize

.text.USBEndpointGetMaxPacketSize
                0x00022ec4       0x34
 .text.USBEndpointGetMaxPacketSize
                0x00022ec4       0x34 ./src/usbendpoint.o
                0x00022ec4                USBEndpointGetMaxPacketSize

.text.USBEndpointGetInterval
                0x00022ef8       0x54
 .text.USBEndpointGetInterval
                0x00022ef8       0x54 ./src/usbendpoint.o
                0x00022ef8                USBEndpointGetInterval

.text.USBEndpointGetNextPID
                0x00022f4c       0x70
 .text.USBEndpointGetNextPID
                0x00022f4c       0x70 ./src/usbendpoint.o
                0x00022f4c                USBEndpointGetNextPID

.text.USBEndpointSkipPID
                0x00022fbc       0xec
 .text.USBEndpointSkipPID
                0x00022fbc       0xec ./src/usbendpoint.o
                0x00022fbc                USBEndpointSkipPID

.text.USBEndpointResetPID
                0x000230a8       0x58
 .text.USBEndpointResetPID
                0x000230a8       0x58 ./src/usbendpoint.o
                0x000230a8                USBEndpointResetPID

.text.BitGetUnsigned
                0x00023100      0x11c
 .text.BitGetUnsigned
                0x00023100      0x11c ./src/usbgamepad.o

.text.USBGamePadDeviceStartRequest
                0x0002321c      0x11c
 .text.USBGamePadDeviceStartRequest
                0x0002321c      0x11c ./src/usbgamepad.o

.text.USBGamePadDeviceDecodeReport
                0x00023338      0x98c
 .text.USBGamePadDeviceDecodeReport
                0x00023338      0x98c ./src/usbgamepad.o

.text.USBGamePadDeviceConfigure
                0x00023cc4      0x484
 .text.USBGamePadDeviceConfigure
                0x00023cc4      0x484 ./src/usbgamepad.o
                0x00023cc4                USBGamePadDeviceConfigure

.text.USBGamePadDeviceCompletionRoutine
                0x00024148       0xf0
 .text.USBGamePadDeviceCompletionRoutine
                0x00024148       0xf0 ./src/usbgamepad.o

.text.USBGamePadDevice
                0x00024238       0xfc
 .text.USBGamePadDevice
                0x00024238       0xfc ./src/usbgamepad.o
                0x00024238                USBGamePadDevice

.text._CUSBGamePadDevice
                0x00024334       0xa4
 .text._CUSBGamePadDevice
                0x00024334       0xa4 ./src/usbgamepad.o
                0x00024334                _CUSBGamePadDevice

.text.USBGamePadDeviceRegisterStatusHandler
                0x000243d8       0x5c
 .text.USBGamePadDeviceRegisterStatusHandler
                0x000243d8       0x5c ./src/usbgamepad.o
                0x000243d8                USBGamePadDeviceRegisterStatusHandler

.text.USBGamePadDeviceGetReport
                0x00024434       0x70
 .text.USBGamePadDeviceGetReport
                0x00024434       0x70 ./src/usbgamepad.o
                0x00024434                USBGamePadDeviceGetReport

.text.USBKeyboardDeviceStartRequest
                0x000244a4      0x11c
 .text.USBKeyboardDeviceStartRequest
                0x000244a4      0x11c ./src/usbkeyboard.o

.text.USBKeyboardDeviceConfigure
                0x000245c0      0x2f0
 .text.USBKeyboardDeviceConfigure
                0x000245c0      0x2f0 ./src/usbkeyboard.o
                0x000245c0                USBKeyboardDeviceConfigure

.text.USBKeyboardDeviceCompletionRoutine
                0x000248b0      0x224
 .text.USBKeyboardDeviceCompletionRoutine
                0x000248b0      0x224 ./src/usbkeyboard.o

.text.USBKeyboardDevice
                0x00024ad4       0xa4
 .text.USBKeyboardDevice
                0x00024ad4       0xa4 ./src/usbkeyboard.o
                0x00024ad4                USBKeyboardDevice

.text._CUSBKeyboardDevice
                0x00024b78       0x74
 .text._CUSBKeyboardDevice
                0x00024b78       0x74 ./src/usbkeyboard.o
                0x00024b78                _CUSBKeyboardDevice

.text.USBKeyboardDeviceRegisterKeyPressedHandler
                0x00024bec       0x5c
 .text.USBKeyboardDeviceRegisterKeyPressedHandler
                0x00024bec       0x5c ./src/usbkeyboard.o
                0x00024bec                USBKeyboardDeviceRegisterKeyPressedHandler

.text.USBKeyboardDeviceRegisterSelectConsoleHandler
                0x00024c48       0x5c
 .text.USBKeyboardDeviceRegisterSelectConsoleHandler
                0x00024c48       0x5c ./src/usbkeyboard.o
                0x00024c48                USBKeyboardDeviceRegisterSelectConsoleHandler

.text.USBKeyboardDeviceRegisterShutdownHandler
                0x00024ca4       0x5c
 .text.USBKeyboardDeviceRegisterShutdownHandler
                0x00024ca4       0x5c ./src/usbkeyboard.o
                0x00024ca4                USBKeyboardDeviceRegisterShutdownHandler

.text.USBKeyboardDeviceRegisterKeyStatusHandlerRaw
                0x00024d00       0x5c
 .text.USBKeyboardDeviceRegisterKeyStatusHandlerRaw
                0x00024d00       0x5c ./src/usbkeyboard.o
                0x00024d00                USBKeyboardDeviceRegisterKeyStatusHandlerRaw

.text.USBBulkOnlyMassStorageDevice
                0x00024d5c       0x68
 .text.USBBulkOnlyMassStorageDevice
                0x00024d5c       0x68 ./src/usbmassdevice.o
                0x00024d5c                USBBulkOnlyMassStorageDevice

.text._USBBulkOnlyMassStorageDevice
                0x00024dc4       0x74
 .text._USBBulkOnlyMassStorageDevice
                0x00024dc4       0x74 ./src/usbmassdevice.o
                0x00024dc4                _USBBulkOnlyMassStorageDevice

.text.USBBulkOnlyMassStorageDeviceSeek
                0x00024e38       0x40
 .text.USBBulkOnlyMassStorageDeviceSeek
                0x00024e38       0x40 ./src/usbmassdevice.o
                0x00024e38                USBBulkOnlyMassStorageDeviceSeek

.text.USBBulkOnlyMassStorageDeviceGetCapacity
                0x00024e78       0x34
 .text.USBBulkOnlyMassStorageDeviceGetCapacity
                0x00024e78       0x34 ./src/usbmassdevice.o
                0x00024e78                USBBulkOnlyMassStorageDeviceGetCapacity

.text.USBBulkOnlyMassStorageDeviceTryRead
                0x00024eac      0x314
 .text.USBBulkOnlyMassStorageDeviceTryRead
                0x00024eac      0x314 ./src/usbmassdevice.o
                0x00024eac                USBBulkOnlyMassStorageDeviceTryRead

.text.USBBulkOnlyMassStorageDeviceTryWrite
                0x000251c0      0x308
 .text.USBBulkOnlyMassStorageDeviceTryWrite
                0x000251c0      0x308 ./src/usbmassdevice.o
                0x000251c0                USBBulkOnlyMassStorageDeviceTryWrite

.text.USBBulkOnlyMassStorageDeviceCommand
                0x000254c8      0x2d0
 .text.USBBulkOnlyMassStorageDeviceCommand
                0x000254c8      0x2d0 ./src/usbmassdevice.o
                0x000254c8                USBBulkOnlyMassStorageDeviceCommand

.text.USBBulkOnlyMassStorageDeviceConfigure
                0x00025798      0x4ac
 .text.USBBulkOnlyMassStorageDeviceConfigure
                0x00025798      0x4ac ./src/usbmassdevice.o
                0x00025798                USBBulkOnlyMassStorageDeviceConfigure

.text.USBBulkOnlyMassStorageDeviceReset
                0x00025c44      0x178
 .text.USBBulkOnlyMassStorageDeviceReset
                0x00025c44      0x178 ./src/usbmassdevice.o
                0x00025c44                USBBulkOnlyMassStorageDeviceReset

.text.USBBulkOnlyMassStorageDeviceRead
                0x00025dbc      0x38c
 .text.USBBulkOnlyMassStorageDeviceRead
                0x00025dbc      0x38c ./src/usbmassdevice.o
                0x00025dbc                USBBulkOnlyMassStorageDeviceRead

.text.USBBulkOnlyMassStorageDeviceWrite
                0x00026148      0x380
 .text.USBBulkOnlyMassStorageDeviceWrite
                0x00026148      0x380 ./src/usbmassdevice.o
                0x00026148                USBBulkOnlyMassStorageDeviceWrite

.text.USBMouseDeviceStartRequest
                0x000264c8      0x11c
 .text.USBMouseDeviceStartRequest
                0x000264c8      0x11c ./src/usbmouse.o

.text.USBMouseDeviceConfigure
                0x000265e4      0x2f0
 .text.USBMouseDeviceConfigure
                0x000265e4      0x2f0 ./src/usbmouse.o
                0x000265e4                USBMouseDeviceConfigure

.text.USBMouseDeviceCompletionRoutine
                0x000268d4      0x124
 .text.USBMouseDeviceCompletionRoutine
                0x000268d4      0x124 ./src/usbmouse.o

.text.USBMouseDevice
                0x000269f8       0x84
 .text.USBMouseDevice
                0x000269f8       0x84 ./src/usbmouse.o
                0x000269f8                USBMouseDevice

.text._CUSBMouseDevice
                0x00026a7c       0x6c
 .text._CUSBMouseDevice
                0x00026a7c       0x6c ./src/usbmouse.o
                0x00026a7c                _CUSBMouseDevice

.text.USBMouseDeviceRegisterStatusHandler
                0x00026ae8       0x5c
 .text.USBMouseDeviceRegisterStatusHandler
                0x00026ae8       0x5c ./src/usbmouse.o
                0x00026ae8                USBMouseDeviceRegisterStatusHandler

.text.USBRequest
                0x00026b44       0xcc
 .text.USBRequest
                0x00026b44       0xcc ./src/usbrequest.o
                0x00026b44                USBRequest

.text._USBRequest
                0x00026c10       0x40
 .text._USBRequest
                0x00026c10       0x40 ./src/usbrequest.o
                0x00026c10                _USBRequest

.text.USBRequestGetEndpoint
                0x00026c50       0x54
 .text.USBRequestGetEndpoint
                0x00026c50       0x54 ./src/usbrequest.o
                0x00026c50                USBRequestGetEndpoint

.text.USBRequestSetStatus
                0x00026ca4       0x38
 .text.USBRequestSetStatus
                0x00026ca4       0x38 ./src/usbrequest.o
                0x00026ca4                USBRequestSetStatus

.text.USBRequestSetResultLen
                0x00026cdc       0x38
 .text.USBRequestSetResultLen
                0x00026cdc       0x38 ./src/usbrequest.o
                0x00026cdc                USBRequestSetResultLen

.text.USBRequestGetStatus
                0x00026d14       0x34
 .text.USBRequestGetStatus
                0x00026d14       0x34 ./src/usbrequest.o
                0x00026d14                USBRequestGetStatus

.text.USBRequestGetResultLength
                0x00026d48       0x54
 .text.USBRequestGetResultLength
                0x00026d48       0x54 ./src/usbrequest.o
                0x00026d48                USBRequestGetResultLength

.text.USBRequestGetSetupData
                0x00026d9c       0x80
 .text.USBRequestGetSetupData
                0x00026d9c       0x80 ./src/usbrequest.o
                0x00026d9c                USBRequestGetSetupData

.text.USBRequestGetBuffer
                0x00026e1c       0x60
 .text.USBRequestGetBuffer
                0x00026e1c       0x60 ./src/usbrequest.o
                0x00026e1c                USBRequestGetBuffer

.text.USBRequestGetBufLen
                0x00026e7c       0x34
 .text.USBRequestGetBufLen
                0x00026e7c       0x34 ./src/usbrequest.o
                0x00026e7c                USBRequestGetBufLen

.text.USBRequestSetCompletionRoutine
                0x00026eb0       0x78
 .text.USBRequestSetCompletionRoutine
                0x00026eb0       0x78 ./src/usbrequest.o
                0x00026eb0                USBRequestSetCompletionRoutine

.text.USBRequestCallCompletionRoutine
                0x00026f28       0x68
 .text.USBRequestCallCompletionRoutine
                0x00026f28       0x68 ./src/usbrequest.o
                0x00026f28                USBRequestCallCompletionRoutine

.text.USBStandardHub
                0x00026f90       0x74
 .text.USBStandardHub
                0x00026f90       0x74 ./src/usbstandardhub.o
                0x00026f90                USBStandardHub

.text._USBStandardHub
                0x00027004       0xac
 .text._USBStandardHub
                0x00027004       0xac ./src/usbstandardhub.o
                0x00027004                _USBStandardHub

.text.USBStandardHubInitialize
                0x000270b0       0x3c
 .text.USBStandardHubInitialize
                0x000270b0       0x3c ./src/usbstandardhub.o
                0x000270b0                USBStandardHubInitialize

.text.USBStandardHubGetDeviceNames
                0x000270ec      0x128
 .text.USBStandardHubGetDeviceNames
                0x000270ec      0x128 ./src/usbstandardhub.o
                0x000270ec                USBStandardHubGetDeviceNames

.text.USBStandardHubEnumeratePorts
                0x00027214      0x748
 .text.USBStandardHubEnumeratePorts
                0x00027214      0x748 ./src/usbstandardhub.o
                0x00027214                USBStandardHubEnumeratePorts

.text.USBStandardHubConfigure
                0x0002795c      0x37c
 .text.USBStandardHubConfigure
                0x0002795c      0x37c ./src/usbstandardhub.o
                0x0002795c                USBStandardHubConfigure

.text.USBString
                0x00027cd8       0x9c
 .text.USBString
                0x00027cd8       0x9c ./src/usbstring.o
                0x00027cd8                USBString

.text.USBStringCopy
                0x00027d74      0x124
 .text.USBStringCopy
                0x00027d74      0x124 ./src/usbstring.o
                0x00027d74                USBStringCopy

.text._USBString
                0x00027e98       0x88
 .text._USBString
                0x00027e98       0x88 ./src/usbstring.o
                0x00027e98                _USBString

.text.USBStringGetFromDescriptor
                0x00027f20      0x2f8
 .text.USBStringGetFromDescriptor
                0x00027f20      0x2f8 ./src/usbstring.o
                0x00027f20                USBStringGetFromDescriptor

.text.USBStringGet
                0x00028218       0x3c
 .text.USBStringGet
                0x00028218       0x3c ./src/usbstring.o
                0x00028218                USBStringGet

.text.USBStringGetLanguageID
                0x00028254      0x1e4
 .text.USBStringGetLanguageID
                0x00028254      0x1e4 ./src/usbstring.o
                0x00028254                USBStringGetLanguageID

.text.USPiInitialize
                0x00028438      0x234
 .text.USPiInitialize
                0x00028438      0x234 ./src/uspilibrary.o
                0x00028438                USPiInitialize

.text.USPiKeyboardAvailable
                0x0002866c       0x48
 .text.USPiKeyboardAvailable
                0x0002866c       0x48 ./src/uspilibrary.o
                0x0002866c                USPiKeyboardAvailable

.text.USPiKeyboardRegisterKeyPressedHandler
                0x000286b4       0x80
 .text.USPiKeyboardRegisterKeyPressedHandler
                0x000286b4       0x80 ./src/uspilibrary.o
                0x000286b4                USPiKeyboardRegisterKeyPressedHandler

.text.USPiKeyboardRegisterShutdownHandler
                0x00028734       0x80
 .text.USPiKeyboardRegisterShutdownHandler
                0x00028734       0x80 ./src/uspilibrary.o
                0x00028734                USPiKeyboardRegisterShutdownHandler

.text.USPiKeyboardRegisterKeyStatusHandlerRaw
                0x000287b4       0x80
 .text.USPiKeyboardRegisterKeyStatusHandlerRaw
                0x000287b4       0x80 ./src/uspilibrary.o
                0x000287b4                USPiKeyboardRegisterKeyStatusHandlerRaw

.text.USPiMouseAvailable
                0x00028834       0x48
 .text.USPiMouseAvailable
                0x00028834       0x48 ./src/uspilibrary.o
                0x00028834                USPiMouseAvailable

.text.USPiMouseRegisterStatusHandler
                0x0002887c       0x80
 .text.USPiMouseRegisterStatusHandler
                0x0002887c       0x80 ./src/uspilibrary.o
                0x0002887c                USPiMouseRegisterStatusHandler

.text.USPiMassStorageDeviceAvailable
                0x000288fc       0x88
 .text.USPiMassStorageDeviceAvailable
                0x000288fc       0x88 ./src/uspilibrary.o
                0x000288fc                USPiMassStorageDeviceAvailable

.text.USPiMassStorageDeviceRead
                0x00028984       0xa4
 .text.USPiMassStorageDeviceRead
                0x00028984       0xa4 ./src/uspilibrary.o
                0x00028984                USPiMassStorageDeviceRead

.text.USPiMassStorageDeviceWrite
                0x00028a28       0xa4
 .text.USPiMassStorageDeviceWrite
                0x00028a28       0xa4 ./src/uspilibrary.o
                0x00028a28                USPiMassStorageDeviceWrite

.text.USPiMassStorageDeviceGetCapacity
                0x00028acc       0x64
 .text.USPiMassStorageDeviceGetCapacity
                0x00028acc       0x64 ./src/uspilibrary.o
                0x00028acc                USPiMassStorageDeviceGetCapacity

.text.USPiEthernetAvailable
                0x00028b30       0x48
 .text.USPiEthernetAvailable
                0x00028b30       0x48 ./src/uspilibrary.o
                0x00028b30                USPiEthernetAvailable

.text.USPiGetMACAddress
                0x00028b78       0xb4
 .text.USPiGetMACAddress
                0x00028b78       0xb4 ./src/uspilibrary.o
                0x00028b78                USPiGetMACAddress

.text.USPiSendFrame
                0x00028c2c       0x88
 .text.USPiSendFrame
                0x00028c2c       0x88 ./src/uspilibrary.o
                0x00028c2c                USPiSendFrame

.text.USPiReceiveFrame
                0x00028cb4       0x88
 .text.USPiReceiveFrame
                0x00028cb4       0x88 ./src/uspilibrary.o
                0x00028cb4                USPiReceiveFrame

.text.USPiGamePadAvailable
                0x00028d3c       0x88
 .text.USPiGamePadAvailable
                0x00028d3c       0x88 ./src/uspilibrary.o
                0x00028d3c                USPiGamePadAvailable

.text.USPiGamePadRegisterStatusHandler
                0x00028dc4       0x6c
 .text.USPiGamePadRegisterStatusHandler
                0x00028dc4       0x6c ./src/uspilibrary.o
                0x00028dc4                USPiGamePadRegisterStatusHandler

.text.USPiGamePadGetStatus
                0x00028e30       0x84
 .text.USPiGamePadGetStatus
                0x00028e30       0x84 ./src/uspilibrary.o
                0x00028e30                USPiGamePadGetStatus

.text.USPiDeviceGetInformation
                0x00028eb4      0x17c
 .text.USPiDeviceGetInformation
                0x00028eb4      0x17c ./src/uspilibrary.o
                0x00028eb4                USPiDeviceGetInformation

.text.uspi_memset
                0x00029030       0x20
 .text.uspi_memset
                0x00029030       0x20 ./src/util.o
                0x00029030                uspi_memset

.text.uspi_memcpy
                0x00029050       0xf0
 .text.uspi_memcpy
                0x00029050       0xf0 ./src/util.o
                0x00029050                uspi_memcpy

.text.uspi_memcmp
                0x00029140       0x5c
 .text.uspi_memcmp
                0x00029140       0x5c ./src/util.o
                0x00029140                uspi_memcmp

.text.uspi_strlen
                0x0002919c       0x28
 .text.uspi_strlen
                0x0002919c       0x28 ./src/util.o
                0x0002919c                uspi_strlen

.text.uspi_strcmp
                0x000291c4       0x90
 .text.uspi_strcmp
                0x000291c4       0x90 ./src/util.o
                0x000291c4                uspi_strcmp

.text.uspi_strcpy
                0x00029254       0x2c
 .text.uspi_strcpy
                0x00029254       0x2c ./src/util.o
                0x00029254                uspi_strcpy

.text.uspi_strncpy
                0x00029280       0x50
 .text.uspi_strncpy
                0x00029280       0x50 ./src/util.o
                0x00029280                uspi_strncpy

.text.uspi_strcat
                0x000292d0       0x44
 .text.uspi_strcat
                0x000292d0       0x44 ./src/util.o
                0x000292d0                uspi_strcat

.text.uspi_char2int
                0x00029314        0x4
 .text.uspi_char2int
                0x00029314        0x4 ./src/util.o
                0x00029314                uspi_char2int

.text.uspi_le2be16
                0x00029318        0xc
 .text.uspi_le2be16
                0x00029318        0xc ./src/util.o
                0x00029318                uspi_le2be16

.text.uspi_le2be32
                0x00029324        0x8
 .text.uspi_le2be32
                0x00029324        0x8 ./src/util.o
                0x00029324                uspi_le2be32

.text.srand     0x0002932c       0x1c
 .text.srand    0x0002932c       0x1c c:/program files (x86)/gnu tools arm embedded/4.9 2015q1/bin/../lib/gcc/arm-none-eabi/4.9.3/../../../../arm-none-eabi/lib\libc.a(lib_a-rand.o)
                0x0002932c                srand

.text.rand      0x00029348       0x54
 .text.rand     0x00029348       0x54 c:/program files (x86)/gnu tools arm embedded/4.9 2015q1/bin/../lib/gcc/arm-none-eabi/4.9.3/../../../../arm-none-eabi/lib\libc.a(lib_a-rand.o)
                0x00029348                rand
                0x0002a000                . = ALIGN (0x1000)
                0x0002a000                _etext = .

.rodata         0x0002a000     0x2bc0
 *(.rodata*)
 .rodata.str1.4
                0x0002a000       0xc7 ./src/lib/alloc.o
                                 0xc8 (size before relaxing)
 *fill*         0x0002a0c7        0x1 
 .rodata.str1.4
                0x0002a0c8       0x1d ./src/lib/assert.o
                                 0x20 (size before relaxing)
 *fill*         0x0002a0e5        0x3 
 .rodata.str1.4
                0x0002a0e8       0x28 ./src/lib/bcmframebuffer.o
 .rodata.str1.4
                0x0002a110       0x2b ./src/lib/bcmmailbox.o
                                 0x38 (size before relaxing)
 *fill*         0x0002a13b        0x1 
 .rodata.str1.4
                0x0002a13c       0x6b ./src/lib/bcmpropertytags.o
                                 0x78 (size before relaxing)
 *fill*         0x0002a1a7        0x1 
 .rodata.font_data
                0x0002a1a8      0x524 ./src/lib/chargenerator.o
 .rodata.str1.4
                0x0002a6cc       0x38 ./src/lib/chargenerator.o
                                 0x44 (size before relaxing)
 .rodata.str1.4
                0x0002a704       0x8e ./src/lib/debug.o
                                 0x90 (size before relaxing)
 *fill*         0x0002a792        0x2 
 .rodata.FromDebug
                0x0002a794        0x8 ./src/lib/debug.o
 .rodata.FromExcept
                0x0002a79c        0x8 ./src/lib/exceptionhandler.o
 .rodata.str1.4
                0x0002a7a4       0xe3 ./src/lib/exceptionhandler.o
                                 0xf0 (size before relaxing)
 *fill*         0x0002a887        0x1 
 .rodata.s_pExceptionName
                0x0002a888       0x10 ./src/lib/exceptionhandler.o
 .rodata.str1.4
                0x0002a898       0x71 ./src/lib/interrupt.o
                                 0x90 (size before relaxing)
 *fill*         0x0002a909        0x3 
 .rodata.str1.4
                0x0002a90c       0x17 ./src/lib/libhelper.o
                                 0x1c (size before relaxing)
 *fill*         0x0002a923        0x1 
 .rodata.str1.4
                0x0002a924       0x30 ./src/lib/logger.o
                                 0x34 (size before relaxing)
 .rodata.str1.4
                0x0002a954       0xb0 ./src/lib/memory.o
                                 0xbc (size before relaxing)
 .rodata.str1.4
                0x0002aa04       0x55 ./src/lib/pagetable.o
                                 0x64 (size before relaxing)
 *fill*         0x0002aa59        0x3 
 .rodata.chChars.4413
                0x0002aa5c        0x8 ./src/lib/screen.o
 .rodata.str1.4
                0x0002aa64       0x14 ./src/lib/string.o
                                 0x24 (size before relaxing)
 .rodata.str1.4
                0x0002aa78       0x31 ./src/lib/synchronize.o
                                 0x34 (size before relaxing)
 *fill*         0x0002aaa9        0x3 
 .rodata.str1.4
                0x0002aaac       0xe7 ./src/lib/timer.o
                                0x114 (size before relaxing)
 *fill*         0x0002ab93        0x1 
 .rodata.str1.4
                0x0002ab94       0x2e ./src/FrameBuffer.o
                                 0x30 (size before relaxing)
 *fill*         0x0002abc2        0x2 
 .rodata.str1.4
                0x0002abc4       0x7c ./src/devicenameservice.o
                                 0xb4 (size before relaxing)
 .rodata.CSWTCH.37
                0x0002ac40        0x4 ./src/dwhcidevice.o
 .rodata.FromDWHCI
                0x0002ac44        0x8 ./src/dwhcidevice.o
 .rodata.str1.4
                0x0002ac4c      0x582 ./src/dwhcidevice.o
                                0x594 (size before relaxing)
 *fill*         0x0002b1ce        0x2 
 .rodata.str1.4
                0x0002b1d0       0x60 ./src/dwhciframeschednper.o
                                 0x70 (size before relaxing)
 .rodata.str1.4
                0x0002b230       0x1f ./src/dwhciframeschednsplit.o
                                 0x30 (size before relaxing)
 *fill*         0x0002b24f        0x1 
 .rodata.str1.4
                0x0002b250       0x1c ./src/dwhciframeschedper.o
                                 0x6c (size before relaxing)
 .rodata.str1.4
                0x0002b26c       0x8d ./src/dwhciregister.o
                                 0x9c (size before relaxing)
 *fill*         0x0002b2f9        0x3 
 .rodata.FromDWHCIRoot
                0x0002b2fc        0x8 ./src/dwhcirootport.o
 .rodata.str1.4
                0x0002b304       0xef ./src/dwhcirootport.o
                                 0xfc (size before relaxing)
 *fill*         0x0002b3f3        0x1 
 .rodata.str1.4
                0x0002b3f4      0x1ad ./src/dwhcixferstagedata.o
                                0x1d8 (size before relaxing)
 *fill*         0x0002b5a1        0x3 
 .rodata.s_DefaultMap
                0x0002b5a4      0x180 ./src/keymap.o
 .rodata.str1.4
                0x0002b724       0xda ./src/keymap.o
                                 0xfc (size before relaxing)
 *fill*         0x0002b7fe        0x2 
 .rodata.s_KeyStrings
                0x0002b800       0xcc ./src/keymap.o
 .rodata.str1.4
                0x0002b8cc       0x42 ./src/macaddress.o
                                 0x80 (size before relaxing)
 *fill*         0x0002b90e        0x2 
 .rodata.str1.4
                0x0002b910       0xcd ./src/main.o
                                 0xd0 (size before relaxing)
 *fill*         0x0002b9dd        0x3 
 .rodata.str1.4
                0x0002b9e0       0x1e ./src/periph.o
                                 0x20 (size before relaxing)
 *fill*         0x0002b9fe        0x2 
 .rodata.str1.4
                0x0002ba00      0x252 ./src/smsc951x.o
                                0x27c (size before relaxing)
 *fill*         0x0002bc52        0x2 
 .rodata.FromSMSC951x
                0x0002bc54        0xc ./src/smsc951x.o
 .rodata.str1.4
                0x0002bc60       0x15 ./src/synchronize.o
                                 0x30 (size before relaxing)
 *fill*         0x0002bc75        0x3 
 .rodata.str1.4
                0x0002bc78       0x97 ./src/usbconfigparser.o
                                 0xb4 (size before relaxing)
 *fill*         0x0002bd0f        0x1 
 .rodata.FromDevice
                0x0002bd10        0x8 ./src/usbdevice.o
 .rodata.str1.4
                0x0002bd18      0x2b1 ./src/usbdevice.o
                                0x2f8 (size before relaxing)
 *fill*         0x0002bfc9        0x3 
 .rodata.str1.4
                0x0002bfcc       0x8c ./src/usbdevicefactory.o
                                 0xa8 (size before relaxing)
 .rodata.str1.4
                0x0002c058      0x16a ./src/usbendpoint.o
                                0x194 (size before relaxing)
 *fill*         0x0002c1c2        0x2 
 .rodata.leds.5020
                0x0002c1c4        0x8 ./src/usbgamepad.o
 .rodata.FromUSBPad
                0x0002c1cc        0x8 ./src/usbgamepad.o
 .rodata.str1.4
                0x0002c1d4      0x110 ./src/usbgamepad.o
                                0x158 (size before relaxing)
 .rodata.str1.4
                0x0002c2e4       0xe2 ./src/usbkeyboard.o
                                0x18c (size before relaxing)
 *fill*         0x0002c3c6        0x2 
 .rodata.FromUSBKbd
                0x0002c3c8        0x8 ./src/usbkeyboard.o
 .rodata.FromUmsd
                0x0002c3d0        0x8 ./src/usbmassdevice.o
 .rodata.str1.4
                0x0002c3d8      0x244 ./src/usbmassdevice.o
                                0x2b4 (size before relaxing)
 .rodata.str1.4
                0x0002c61c       0x1d ./src/usbmouse.o
                                0x138 (size before relaxing)
 *fill*         0x0002c639        0x3 
 .rodata.FromUSBKbd
                0x0002c63c        0x8 ./src/usbmouse.o
 .rodata.str1.4
                0x0002c644       0xd5 ./src/usbrequest.o
                                 0xfc (size before relaxing)
 *fill*         0x0002c719        0x3 
 .rodata.FromHub
                0x0002c71c        0x8 ./src/usbstandardhub.o
 .rodata.str1.4
                0x0002c724      0x300 ./src/usbstandardhub.o
                                0x37c (size before relaxing)
 .rodata.str1.4
                0x0002ca24       0x96 ./src/usbstring.o
                                 0xcc (size before relaxing)
 *fill*         0x0002caba        0x2 
 .rodata.FromUSPi
                0x0002cabc        0x8 ./src/uspilibrary.o
 .rodata.str1.4
                0x0002cac4       0xf3 ./src/uspilibrary.o
                                0x128 (size before relaxing)
 *fill*         0x0002cbb7        0x1 
 .rodata.str1.4
                0x0002cbb8        0x4 c:/program files (x86)/gnu tools arm embedded/4.9 2015q1/bin/../lib/gcc/arm-none-eabi/4.9.3/../../../../arm-none-eabi/lib\libc.a(lib_a-impure.o)
 .rodata._global_impure_ptr
                0x0002cbbc        0x4 c:/program files (x86)/gnu tools arm embedded/4.9 2015q1/bin/../lib/gcc/arm-none-eabi/4.9.3/../../../../arm-none-eabi/lib\libc.a(lib_a-impure.o)
                0x0002cbbc                _global_impure_ptr

.ARM.extab      0x0002cbc0        0x0
 .ARM.extab     0x0002cbc0        0x0 c:/program files (x86)/gnu tools arm embedded/4.9 2015q1/bin/../lib/gcc/arm-none-eabi/4.9.3\libgcc.a(_divdi3.o)
 .ARM.extab     0x0002cbc0        0x0 c:/program files (x86)/gnu tools arm embedded/4.9 2015q1/bin/../lib/gcc/arm-none-eabi/4.9.3\libgcc.a(_udivdi3.o)

.ARM.exidx      0x0002cbc0        0x8
 .ARM.exidx     0x0002cbc0        0x8 c:/program files (x86)/gnu tools arm embedded/4.9 2015q1/bin/../lib/gcc/arm-none-eabi/4.9.3\libgcc.a(_divdi3.o)
 .ARM.exidx     0x0002cbc8        0x0 c:/program files (x86)/gnu tools arm embedded/4.9 2015q1/bin/../lib/gcc/arm-none-eabi/4.9.3\libgcc.a(_udivdi3.o)
                                  0x8 (size before relaxing)

.rel.dyn        0x0002cbc8        0x0
 .rel.iplt      0x00000000        0x0 ./src/lib/alloc.o

.data           0x0002cbc8      0x4d4
 *(.data*)
 .data          0x0002cbc8        0x0 ./src/lib/alloc.o
 .data.s_BlockBucket
                0x0002cbc8       0x38 ./src/lib/alloc.o
 .data          0x0002cc00        0x0 ./src/lib/assert.o
 .data          0x0002cc00        0x0 ./src/lib/bcmframebuffer.o
 .data          0x0002cc00        0x0 ./src/lib/bcmmailbox.o
 .data          0x0002cc00        0x0 ./src/lib/bcmpropertytags.o
 .data          0x0002cc00        0x0 ./src/lib/chargenerator.o
 .data          0x0002cc00        0x0 ./src/lib/debug.o
 .data          0x0002cc00        0x0 ./src/lib/exceptionhandler.o
 .data          0x0002cc00        0x0 ./src/lib/interrupt.o
 .data          0x0002cc00        0x0 ./src/lib/libhelper.o
 .data          0x0002cc00        0x0 ./src/lib/logger.o
 .data          0x0002cc00        0x0 ./src/lib/memio.o
 .data          0x0002cc00        0x0 ./src/lib/memory.o
 .data          0x0002cc00        0x0 ./src/lib/pagetable.o
 .data          0x0002cc00        0x0 ./src/lib/screen.o
 .data          0x0002cc00        0x0 ./src/lib/string.o
 .data          0x0002cc00        0x0 ./src/lib/synchronize.o
 .data          0x0002cc00        0x0 ./src/lib/sysinit.o
 .data          0x0002cc00        0x0 ./src/lib/timer.o
 .data          0x0002cc00        0x0 ./src/lib/uspibind.o
 .data          0x0002cc00        0x0 ./src/lib/uspienv.o
 .data          0x0002cc00        0x0 ./src/lib/util.o
 .data          0x0002cc00        0x0 ./src/Asetup.o
 .data          0x0002cc00        0x0 ./src/Avectors.o
 .data          0x0002cc00        0x0 ./src/FrameBuffer.o
 .data          0x0002cc00        0x0 ./src/GPIO.o
 .data          0x0002cc00        0x0 ./src/Mailbox.o
 .data          0x0002cc00        0x0 ./src/SystemTimer.o
 .data          0x0002cc00        0x0 ./src/armtimer.o
 .data          0x0002cc00        0x0 ./src/bcm2835.o
 .data.bcm2835_pads
                0x0002cc00        0x4 ./src/bcm2835.o
                0x0002cc00                bcm2835_pads
 .data.bcm2835_aux
                0x0002cc04        0x4 ./src/bcm2835.o
                0x0002cc04                bcm2835_aux
 .data.bcm2835_mail
                0x0002cc08        0x4 ./src/bcm2835.o
                0x0002cc08                bcm2835_mail
 .data.bcm2835_st
                0x0002cc0c        0x4 ./src/bcm2835.o
                0x0002cc0c                bcm2835_st
 .data.bcm2835_gpio
                0x0002cc10        0x4 ./src/bcm2835.o
                0x0002cc10                bcm2835_gpio
 .data.bcm2835_clk
                0x0002cc14        0x4 ./src/bcm2835.o
                0x0002cc14                bcm2835_clk
 .data.bcm2835_bsc0
                0x0002cc18        0x4 ./src/bcm2835.o
                0x0002cc18                bcm2835_bsc0
 .data.bcm2835_bsc1
                0x0002cc1c        0x4 ./src/bcm2835.o
                0x0002cc1c                bcm2835_bsc1
 .data.bcm2835_spi0
                0x0002cc20        0x4 ./src/bcm2835.o
                0x0002cc20                bcm2835_spi0
 .data.bcm2835_pwm
                0x0002cc24        0x4 ./src/bcm2835.o
                0x0002cc24                bcm2835_pwm
 .data          0x0002cc28        0x0 ./src/devicenameservice.o
 .data          0x0002cc28        0x0 ./src/dwhcidevice.o
 .data          0x0002cc28        0x0 ./src/dwhciframeschednper.o
 .data          0x0002cc28        0x0 ./src/dwhciframeschednsplit.o
 .data          0x0002cc28        0x0 ./src/dwhciframeschedper.o
 .data          0x0002cc28        0x0 ./src/dwhciregister.o
 .data          0x0002cc28        0x0 ./src/dwhcirootport.o
 .data          0x0002cc28        0x0 ./src/dwhcixferstagedata.o
 .data          0x0002cc28        0x0 ./src/keymap.o
 .data          0x0002cc28        0x0 ./src/macaddress.o
 .data          0x0002cc28        0x0 ./src/main.o
 .data          0x0002cc28        0x0 ./src/periph.o
 .data          0x0002cc28        0x0 ./src/raspi.o
 .data          0x0002cc28        0x0 ./src/smsc951x.o
 .data          0x0002cc28        0x0 ./src/synchronize.o
 .data          0x0002cc28        0x0 ./src/usbconfigparser.o
 .data          0x0002cc28        0x0 ./src/usbdevice.o
 .data.s_ucNextAddress
                0x0002cc28        0x1 ./src/usbdevice.o
 .data          0x0002cc29        0x0 ./src/usbdevicefactory.o
 .data          0x0002cc29        0x0 ./src/usbendpoint.o
 .data          0x0002cc29        0x0 ./src/usbgamepad.o
 *fill*         0x0002cc29        0x3 
 .data.s_nDeviceNumber
                0x0002cc2c        0x4 ./src/usbgamepad.o
 .data.writeBuf.5019
                0x0002cc30       0x30 ./src/usbgamepad.o
 .data          0x0002cc60        0x0 ./src/usbkeyboard.o
 .data.s_nDeviceNumber
                0x0002cc60        0x4 ./src/usbkeyboard.o
 .data          0x0002cc64        0x0 ./src/usbmassdevice.o
 .data.s_nDeviceNumber
                0x0002cc64        0x4 ./src/usbmassdevice.o
 .data          0x0002cc68        0x0 ./src/usbmouse.o
 .data.s_nDeviceNumber
                0x0002cc68        0x4 ./src/usbmouse.o
 .data          0x0002cc6c        0x0 ./src/usbrequest.o
 .data          0x0002cc6c        0x0 ./src/usbstandardhub.o
 .data          0x0002cc6c        0x0 ./src/usbstring.o
 .data          0x0002cc6c        0x0 ./src/uspilibrary.o
 .data          0x0002cc6c        0x0 ./src/util.o
 .data          0x0002cc6c        0x0 c:/program files (x86)/gnu tools arm embedded/4.9 2015q1/bin/../lib/gcc/arm-none-eabi/4.9.3/../../../../arm-none-eabi/lib\libc.a(lib_a-rand.o)
 .data          0x0002cc6c        0x0 c:/program files (x86)/gnu tools arm embedded/4.9 2015q1/bin/../lib/gcc/arm-none-eabi/4.9.3/../../../../arm-none-eabi/lib\libc.a(lib_a-impure.o)
 *fill*         0x0002cc6c        0x4 
 .data.impure_data
                0x0002cc70      0x428 c:/program files (x86)/gnu tools arm embedded/4.9 2015q1/bin/../lib/gcc/arm-none-eabi/4.9.3/../../../../arm-none-eabi/lib\libc.a(lib_a-impure.o)
 .data._impure_ptr
                0x0002d098        0x4 c:/program files (x86)/gnu tools arm embedded/4.9 2015q1/bin/../lib/gcc/arm-none-eabi/4.9.3/../../../../arm-none-eabi/lib\libc.a(lib_a-impure.o)
                0x0002d098                _impure_ptr
 .data          0x0002d09c        0x0 c:/program files (x86)/gnu tools arm embedded/4.9 2015q1/bin/../lib/gcc/arm-none-eabi/4.9.3\libgcc.a(_aeabi_ldivmod.o)
 .data          0x0002d09c        0x0 c:/program files (x86)/gnu tools arm embedded/4.9 2015q1/bin/../lib/gcc/arm-none-eabi/4.9.3\libgcc.a(bpabi.o)
 .data          0x0002d09c        0x0 c:/program files (x86)/gnu tools arm embedded/4.9 2015q1/bin/../lib/gcc/arm-none-eabi/4.9.3\libgcc.a(_dvmd_tls.o)
 .data          0x0002d09c        0x0 c:/program files (x86)/gnu tools arm embedded/4.9 2015q1/bin/../lib/gcc/arm-none-eabi/4.9.3\libgcc.a(_divdi3.o)
 .data          0x0002d09c        0x0 c:/program files (x86)/gnu tools arm embedded/4.9 2015q1/bin/../lib/gcc/arm-none-eabi/4.9.3\libgcc.a(_udivdi3.o)
 .data          0x0002d09c        0x0 c:/program files (x86)/gnu tools arm embedded/4.9 2015q1/bin/../lib/gcc/arm-none-eabi/4.9.3\libgcc.a(_clzdi2.o)
 .data          0x0002d09c        0x0 c:/program files (x86)/gnu tools arm embedded/4.9 2015q1/bin/../lib/gcc/arm-none-eabi/4.9.3\libgcc.a(_clzsi2.o)
                0x0002d09c                __bss_start = .

.igot.plt       0x0002d09c        0x0
 .igot.plt      0x00000000        0x0 ./src/lib/alloc.o

.bss            0x0002d09c      0x456
 *(.bss*)
 .bss           0x0002d09c        0x0 ./src/lib/alloc.o
 .bss.s_pPageLimit
                0x0002d09c        0x4 ./src/lib/alloc.o
 .bss.s_pBlockLimit
                0x0002d0a0        0x4 ./src/lib/alloc.o
 .bss.s_pNextBlock
                0x0002d0a4        0x4 ./src/lib/alloc.o
 .bss.s_PageBucket
                0x0002d0a8        0x4 ./src/lib/alloc.o
 .bss.s_pNextPage
                0x0002d0ac        0x4 ./src/lib/alloc.o
 .bss           0x0002d0b0        0x0 ./src/lib/assert.o
 .bss           0x0002d0b0        0x0 ./src/lib/bcmframebuffer.o
 .bss           0x0002d0b0        0x0 ./src/lib/bcmmailbox.o
 .bss           0x0002d0b0        0x0 ./src/lib/bcmpropertytags.o
 .bss           0x0002d0b0        0x0 ./src/lib/chargenerator.o
 .bss           0x0002d0b0        0x0 ./src/lib/debug.o
 .bss           0x0002d0b0        0x0 ./src/lib/exceptionhandler.o
 .bss.s_pThis   0x0002d0b0        0x4 ./src/lib/exceptionhandler.o
 .bss           0x0002d0b4        0x0 ./src/lib/interrupt.o
 .bss.s_pThis   0x0002d0b4        0x4 ./src/lib/interrupt.o
 .bss           0x0002d0b8        0x0 ./src/lib/libhelper.o
 .bss           0x0002d0b8        0x0 ./src/lib/logger.o
 .bss.s_pThis   0x0002d0b8        0x4 ./src/lib/logger.o
 .bss           0x0002d0bc        0x0 ./src/lib/memio.o
 .bss           0x0002d0bc        0x0 ./src/lib/memory.o
 .bss           0x0002d0bc        0x0 ./src/lib/pagetable.o
 .bss           0x0002d0bc        0x0 ./src/lib/screen.o
 .bss           0x0002d0bc        0x0 ./src/lib/string.o
 .bss           0x0002d0bc        0x0 ./src/lib/synchronize.o
 .bss.s_bWereEnabled
                0x0002d0bc        0x4 ./src/lib/synchronize.o
 .bss.s_nCriticalLevel
                0x0002d0c0        0x4 ./src/lib/synchronize.o
 .bss           0x0002d0c4        0x0 ./src/lib/sysinit.o
 .bss           0x0002d0c4        0x0 ./src/lib/timer.o
 .bss.s_pThis   0x0002d0c4        0x4 ./src/lib/timer.o
 .bss           0x0002d0c8        0x0 ./src/lib/uspibind.o
 .bss           0x0002d0c8        0x0 ./src/lib/uspienv.o
 .bss.s_Env     0x0002d0c8      0x3f4 ./src/lib/uspienv.o
 .bss           0x0002d4bc        0x0 ./src/lib/util.o
 .bss           0x0002d4bc        0x0 ./src/Asetup.o
 .bss           0x0002d4bc        0x0 ./src/Avectors.o
 .bss           0x0002d4bc        0x0 ./src/FrameBuffer.o
 .bss           0x0002d4bc        0x0 ./src/GPIO.o
 .bss           0x0002d4bc        0x0 ./src/Mailbox.o
 .bss           0x0002d4bc        0x0 ./src/SystemTimer.o
 .bss           0x0002d4bc        0x0 ./src/armtimer.o
 .bss           0x0002d4bc        0x0 ./src/bcm2835.o
 .bss.i2c_byte_wait_us
                0x0002d4bc        0x4 ./src/bcm2835.o
 .bss.debug     0x0002d4c0        0x1 ./src/bcm2835.o
 .bss           0x0002d4c1        0x0 ./src/devicenameservice.o
 *fill*         0x0002d4c1        0x3 
 .bss.s_pThis   0x0002d4c4        0x4 ./src/devicenameservice.o
 .bss           0x0002d4c8        0x0 ./src/dwhcidevice.o
 .bss           0x0002d4c8        0x0 ./src/dwhciframeschednper.o
 .bss           0x0002d4c8        0x0 ./src/dwhciframeschednsplit.o
 .bss           0x0002d4c8        0x0 ./src/dwhciframeschedper.o
 .bss           0x0002d4c8        0x0 ./src/dwhciregister.o
 .bss           0x0002d4c8        0x0 ./src/dwhcirootport.o
 .bss           0x0002d4c8        0x0 ./src/dwhcixferstagedata.o
 .bss           0x0002d4c8        0x0 ./src/keymap.o
 .bss           0x0002d4c8        0x0 ./src/macaddress.o
 .bss           0x0002d4c8        0x0 ./src/main.o
 .bss           0x0002d4c8        0x0 ./src/periph.o
 .bss           0x0002d4c8        0x0 ./src/raspi.o
 .bss           0x0002d4c8        0x0 ./src/smsc951x.o
 .bss.s_nDeviceNumber
                0x0002d4c8        0x4 ./src/smsc951x.o
 .bss           0x0002d4cc        0x0 ./src/synchronize.o
 .bss.s_bWereEnabled
                0x0002d4cc        0x4 ./src/synchronize.o
 .bss.s_nCriticalLevel
                0x0002d4d0        0x4 ./src/synchronize.o
 .bss           0x0002d4d4        0x0 ./src/usbconfigparser.o
 .bss           0x0002d4d4        0x0 ./src/usbdevice.o
 .bss           0x0002d4d4        0x0 ./src/usbdevicefactory.o
 .bss           0x0002d4d4        0x0 ./src/usbendpoint.o
 .bss           0x0002d4d4        0x0 ./src/usbgamepad.o
 .bss           0x0002d4d4        0x0 ./src/usbkeyboard.o
 .bss           0x0002d4d4        0x0 ./src/usbmassdevice.o
 .bss           0x0002d4d4        0x0 ./src/usbmouse.o
 .bss           0x0002d4d4        0x0 ./src/usbrequest.o
 .bss           0x0002d4d4        0x0 ./src/usbstandardhub.o
 .bss           0x0002d4d4        0x0 ./src/usbstring.o
 .bss           0x0002d4d4        0x0 ./src/uspilibrary.o
 .bss.s_pLibrary
                0x0002d4d4        0x4 ./src/uspilibrary.o
 .bss           0x0002d4d8        0x0 ./src/util.o
 .bss           0x0002d4d8        0x0 c:/program files (x86)/gnu tools arm embedded/4.9 2015q1/bin/../lib/gcc/arm-none-eabi/4.9.3/../../../../arm-none-eabi/lib\libc.a(lib_a-rand.o)
 .bss           0x0002d4d8        0x0 c:/program files (x86)/gnu tools arm embedded/4.9 2015q1/bin/../lib/gcc/arm-none-eabi/4.9.3/../../../../arm-none-eabi/lib\libc.a(lib_a-impure.o)
 .bss           0x0002d4d8        0x0 c:/program files (x86)/gnu tools arm embedded/4.9 2015q1/bin/../lib/gcc/arm-none-eabi/4.9.3\libgcc.a(_aeabi_ldivmod.o)
 .bss           0x0002d4d8        0x0 c:/program files (x86)/gnu tools arm embedded/4.9 2015q1/bin/../lib/gcc/arm-none-eabi/4.9.3\libgcc.a(bpabi.o)
 .bss           0x0002d4d8        0x0 c:/program files (x86)/gnu tools arm embedded/4.9 2015q1/bin/../lib/gcc/arm-none-eabi/4.9.3\libgcc.a(_dvmd_tls.o)
 .bss           0x0002d4d8        0x0 c:/program files (x86)/gnu tools arm embedded/4.9 2015q1/bin/../lib/gcc/arm-none-eabi/4.9.3\libgcc.a(_divdi3.o)
 .bss           0x0002d4d8        0x0 c:/program files (x86)/gnu tools arm embedded/4.9 2015q1/bin/../lib/gcc/arm-none-eabi/4.9.3\libgcc.a(_udivdi3.o)
 .bss           0x0002d4d8        0x0 c:/program files (x86)/gnu tools arm embedded/4.9 2015q1/bin/../lib/gcc/arm-none-eabi/4.9.3\libgcc.a(_clzdi2.o)
 .bss           0x0002d4d8        0x0 c:/program files (x86)/gnu tools arm embedded/4.9 2015q1/bin/../lib/gcc/arm-none-eabi/4.9.3\libgcc.a(_clzsi2.o)
 COMMON         0x0002d4d8       0x18 ./src/FrameBuffer.o
                0x0002d4d8                fb_info
 COMMON         0x0002d4f0        0x2 ./src/armtimer.o
                0x0002d4f0                globalCounter
                0x0002d4f2                _end = .
OUTPUT(Radecki_V0.elf elf32-littlearm)

.debug_info     0x00000000    0x385e7
 .debug_info    0x00000000      0x526 ./src/lib/alloc.o
 .debug_info    0x00000526      0x6c6 ./src/lib/assert.o
 .debug_info    0x00000bec      0x7ca ./src/lib/bcmframebuffer.o
 .debug_info    0x000013b6      0x4e7 ./src/lib/bcmmailbox.o
 .debug_info    0x0000189d      0x4fb ./src/lib/bcmpropertytags.o
 .debug_info    0x00001d98      0x30b ./src/lib/chargenerator.o
 .debug_info    0x000020a3      0x69c ./src/lib/debug.o
 .debug_info    0x0000273f      0xb90 ./src/lib/exceptionhandler.o
 .debug_info    0x000032cf      0x82f ./src/lib/interrupt.o
 .debug_info    0x00003afe      0x199 ./src/lib/libhelper.o
 .debug_info    0x00003c97      0xeb8 ./src/lib/logger.o
 .debug_info    0x00004b4f       0xde ./src/lib/memio.o
 .debug_info    0x00004c2d      0x76f ./src/lib/memory.o
 .debug_info    0x0000539c      0x448 ./src/lib/pagetable.o
 .debug_info    0x000057e4     0x262b ./src/lib/screen.o
 .debug_info    0x00007e0f     0x21b1 ./src/lib/string.o
 .debug_info    0x00009fc0      0x342 ./src/lib/synchronize.o
 .debug_info    0x0000a302      0x1f7 ./src/lib/sysinit.o
 .debug_info    0x0000a4f9     0x1177 ./src/lib/timer.o
 .debug_info    0x0000b670      0xb5f ./src/lib/uspibind.o
 .debug_info    0x0000c1cf      0xa15 ./src/lib/uspienv.o
 .debug_info    0x0000cbe4      0x3fa ./src/lib/util.o
 .debug_info    0x0000cfde       0x7c ./src/Asetup.o
 .debug_info    0x0000d05a       0x7e ./src/Avectors.o
 .debug_info    0x0000d0d8      0xb0c ./src/FrameBuffer.o
 .debug_info    0x0000dbe4      0x284 ./src/GPIO.o
 .debug_info    0x0000de68      0x198 ./src/Mailbox.o
 .debug_info    0x0000e000      0x107 ./src/SystemTimer.o
 .debug_info    0x0000e107      0x476 ./src/armtimer.o
 .debug_info    0x0000e57d     0x5f6b ./src/bcm2835.o
 .debug_info    0x000144e8      0x551 ./src/devicenameservice.o
 .debug_info    0x00014a39     0x7848 ./src/dwhcidevice.o
 .debug_info    0x0001c281      0x576 ./src/dwhciframeschednper.o
 .debug_info    0x0001c7f7      0x486 ./src/dwhciframeschednsplit.o
 .debug_info    0x0001cc7d      0x6c6 ./src/dwhciframeschedper.o
 .debug_info    0x0001d343      0x75a ./src/dwhciregister.o
 .debug_info    0x0001da9d      0xeb3 ./src/dwhcirootport.o
 .debug_info    0x0001e950     0x1caf ./src/dwhcixferstagedata.o
 .debug_info    0x000205ff      0x670 ./src/keymap.o
 .debug_info    0x00020c6f      0x80e ./src/macaddress.o
 .debug_info    0x0002147d      0x5c4 ./src/main.o
 .debug_info    0x00021a41      0x803 ./src/periph.o
 .debug_info    0x00022244       0x76 ./src/raspi.o
 .debug_info    0x000222ba     0x3ce3 ./src/smsc951x.o
 .debug_info    0x00025f9d      0x162 ./src/synchronize.o
 .debug_info    0x000260ff      0x628 ./src/usbconfigparser.o
 .debug_info    0x00026727     0x1cce ./src/usbdevice.o
 .debug_info    0x000283f5     0x15ee ./src/usbdevicefactory.o
 .debug_info    0x000299e3      0xd61 ./src/usbendpoint.o
 .debug_info    0x0002a744     0x1ea7 ./src/usbgamepad.o
 .debug_info    0x0002c5eb     0x1beb ./src/usbkeyboard.o
 .debug_info    0x0002e1d6     0x2d97 ./src/usbmassdevice.o
 .debug_info    0x00030f6d     0x1551 ./src/usbmouse.o
 .debug_info    0x000324be      0xcbf ./src/usbrequest.o
 .debug_info    0x0003317d     0x1d98 ./src/usbstandardhub.o
 .debug_info    0x00034f15     0x12af ./src/usbstring.o
 .debug_info    0x000361c4     0x2045 ./src/uspilibrary.o
 .debug_info    0x00038209      0x3de ./src/util.o

.debug_abbrev   0x00000000     0x6c52
 .debug_abbrev  0x00000000      0x176 ./src/lib/alloc.o
 .debug_abbrev  0x00000176      0x1a7 ./src/lib/assert.o
 .debug_abbrev  0x0000031d      0x1a2 ./src/lib/bcmframebuffer.o
 .debug_abbrev  0x000004bf      0x1d6 ./src/lib/bcmmailbox.o
 .debug_abbrev  0x00000695      0x1b5 ./src/lib/bcmpropertytags.o
 .debug_abbrev  0x0000084a      0x12a ./src/lib/chargenerator.o
 .debug_abbrev  0x00000974      0x1ad ./src/lib/debug.o
 .debug_abbrev  0x00000b21      0x22a ./src/lib/exceptionhandler.o
 .debug_abbrev  0x00000d4b      0x269 ./src/lib/interrupt.o
 .debug_abbrev  0x00000fb4       0xfe ./src/lib/libhelper.o
 .debug_abbrev  0x000010b2      0x2ad ./src/lib/logger.o
 .debug_abbrev  0x0000135f       0x8c ./src/lib/memio.o
 .debug_abbrev  0x000013eb      0x1a3 ./src/lib/memory.o
 .debug_abbrev  0x0000158e      0x1ad ./src/lib/pagetable.o
 .debug_abbrev  0x0000173b      0x31e ./src/lib/screen.o
 .debug_abbrev  0x00001a59      0x2d5 ./src/lib/string.o
 .debug_abbrev  0x00001d2e       0xea ./src/lib/synchronize.o
 .debug_abbrev  0x00001e18      0x141 ./src/lib/sysinit.o
 .debug_abbrev  0x00001f59      0x35c ./src/lib/timer.o
 .debug_abbrev  0x000022b5      0x203 ./src/lib/uspibind.o
 .debug_abbrev  0x000024b8      0x1de ./src/lib/uspienv.o
 .debug_abbrev  0x00002696       0xfd ./src/lib/util.o
 .debug_abbrev  0x00002793       0x14 ./src/Asetup.o
 .debug_abbrev  0x000027a7       0x14 ./src/Avectors.o
 .debug_abbrev  0x000027bb      0x314 ./src/FrameBuffer.o
 .debug_abbrev  0x00002acf      0x16b ./src/GPIO.o
 .debug_abbrev  0x00002c3a       0xe2 ./src/Mailbox.o
 .debug_abbrev  0x00002d1c       0x97 ./src/SystemTimer.o
 .debug_abbrev  0x00002db3      0x1f4 ./src/armtimer.o
 .debug_abbrev  0x00002fa7      0x3b5 ./src/bcm2835.o
 .debug_abbrev  0x0000335c      0x14c ./src/devicenameservice.o
 .debug_abbrev  0x000034a8      0x3de ./src/dwhcidevice.o
 .debug_abbrev  0x00003886      0x205 ./src/dwhciframeschednper.o
 .debug_abbrev  0x00003a8b      0x16d ./src/dwhciframeschednsplit.o
 .debug_abbrev  0x00003bf8      0x21a ./src/dwhciframeschedper.o
 .debug_abbrev  0x00003e12      0x11e ./src/dwhciregister.o
 .debug_abbrev  0x00003f30      0x1df ./src/dwhcirootport.o
 .debug_abbrev  0x0000410f      0x2a7 ./src/dwhcixferstagedata.o
 .debug_abbrev  0x000043b6      0x1ce ./src/keymap.o
 .debug_abbrev  0x00004584      0x1ca ./src/macaddress.o
 .debug_abbrev  0x0000474e      0x180 ./src/main.o
 .debug_abbrev  0x000048ce      0x1d9 ./src/periph.o
 .debug_abbrev  0x00004aa7       0x29 ./src/raspi.o
 .debug_abbrev  0x00004ad0      0x323 ./src/smsc951x.o
 .debug_abbrev  0x00004df3       0xd6 ./src/synchronize.o
 .debug_abbrev  0x00004ec9      0x162 ./src/usbconfigparser.o
 .debug_abbrev  0x0000502b      0x2ce ./src/usbdevice.o
 .debug_abbrev  0x000052f9      0x1c0 ./src/usbdevicefactory.o
 .debug_abbrev  0x000054b9      0x1aa ./src/usbendpoint.o
 .debug_abbrev  0x00005663      0x3e4 ./src/usbgamepad.o
 .debug_abbrev  0x00005a47      0x345 ./src/usbkeyboard.o
 .debug_abbrev  0x00005d8c      0x311 ./src/usbmassdevice.o
 .debug_abbrev  0x0000609d      0x23b ./src/usbmouse.o
 .debug_abbrev  0x000062d8      0x1b4 ./src/usbrequest.o
 .debug_abbrev  0x0000648c      0x257 ./src/usbstandardhub.o
 .debug_abbrev  0x000066e3      0x207 ./src/usbstring.o
 .debug_abbrev  0x000068ea      0x26b ./src/uspilibrary.o
 .debug_abbrev  0x00006b55       0xfd ./src/util.o

.debug_loc      0x00000000    0x1942c
 .debug_loc     0x00000000      0x285 ./src/lib/alloc.o
 .debug_loc     0x00000285       0x5a ./src/lib/assert.o
 .debug_loc     0x000002df      0x395 ./src/lib/bcmframebuffer.o
 .debug_loc     0x00000674      0x24a ./src/lib/bcmmailbox.o
 .debug_loc     0x000008be      0x244 ./src/lib/bcmpropertytags.o
 .debug_loc     0x00000b02      0x1d0 ./src/lib/chargenerator.o
 .debug_loc     0x00000cd2      0x167 ./src/lib/debug.o
 .debug_loc     0x00000e39      0x3ff ./src/lib/exceptionhandler.o
 .debug_loc     0x00001238      0x4aa ./src/lib/interrupt.o
 .debug_loc     0x000016e2      0x1ba ./src/lib/libhelper.o
 .debug_loc     0x0000189c      0x816 ./src/lib/logger.o
 .debug_loc     0x000020b2       0x21 ./src/lib/memio.o
 .debug_loc     0x000020d3      0x19f ./src/lib/memory.o
 .debug_loc     0x00002272      0x1da ./src/lib/pagetable.o
 .debug_loc     0x0000244c     0x209b ./src/lib/screen.o
 .debug_loc     0x000044e7     0x25fe ./src/lib/string.o
 .debug_loc     0x00006ae5      0x5af ./src/lib/synchronize.o
 .debug_loc     0x00007094       0x38 ./src/lib/sysinit.o
 .debug_loc     0x000070cc      0xa6e ./src/lib/timer.o
 .debug_loc     0x00007b3a      0x32a ./src/lib/uspibind.o
 .debug_loc     0x00007e64      0x56e ./src/lib/util.o
 .debug_loc     0x000083d2      0x9e4 ./src/FrameBuffer.o
 .debug_loc     0x00008db6      0x17a ./src/GPIO.o
 .debug_loc     0x00008f30       0x83 ./src/Mailbox.o
 .debug_loc     0x00008fb3       0x7a ./src/SystemTimer.o
 .debug_loc     0x0000902d     0x2bbc ./src/bcm2835.o
 .debug_loc     0x0000bbe9      0x247 ./src/devicenameservice.o
 .debug_loc     0x0000be30     0x3168 ./src/dwhcidevice.o
 .debug_loc     0x0000ef98      0x2aa ./src/dwhciframeschednper.o
 .debug_loc     0x0000f242      0x167 ./src/dwhciframeschednsplit.o
 .debug_loc     0x0000f3a9      0x305 ./src/dwhciframeschedper.o
 .debug_loc     0x0000f6ae      0x515 ./src/dwhciregister.o
 .debug_loc     0x0000fbc3      0x18a ./src/dwhcirootport.o
 .debug_loc     0x0000fd4d      0xb2b ./src/dwhcixferstagedata.o
 .debug_loc     0x00010878      0x4ce ./src/keymap.o
 .debug_loc     0x00010d46      0x40e ./src/macaddress.o
 .debug_loc     0x00011154       0x1e ./src/main.o
 .debug_loc     0x00011172      0x307 ./src/periph.o
 .debug_loc     0x00011479     0x1fa0 ./src/smsc951x.o
 .debug_loc     0x00013419       0x77 ./src/synchronize.o
 .debug_loc     0x00013490      0x3e5 ./src/usbconfigparser.o
 .debug_loc     0x00013875      0x78c ./src/usbdevice.o
 .debug_loc     0x00014001      0x29b ./src/usbdevicefactory.o
 .debug_loc     0x0001429c      0x5b7 ./src/usbendpoint.o
 .debug_loc     0x00014853     0x163d ./src/usbgamepad.o
 .debug_loc     0x00015e90      0x51c ./src/usbkeyboard.o
 .debug_loc     0x000163ac      0xf19 ./src/usbmassdevice.o
 .debug_loc     0x000172c5      0x31a ./src/usbmouse.o
 .debug_loc     0x000175df      0x472 ./src/usbrequest.o
 .debug_loc     0x00017a51      0x6f0 ./src/usbstandardhub.o
 .debug_loc     0x00018141      0x455 ./src/usbstring.o
 .debug_loc     0x00018596      0x928 ./src/uspilibrary.o
 .debug_loc     0x00018ebe      0x56e ./src/util.o

.debug_aranges  0x00000000     0x16d8
 .debug_aranges
                0x00000000       0x48 ./src/lib/alloc.o
 .debug_aranges
                0x00000048       0x20 ./src/lib/assert.o
 .debug_aranges
                0x00000068       0x68 ./src/lib/bcmframebuffer.o
 .debug_aranges
                0x000000d0       0x48 ./src/lib/bcmmailbox.o
 .debug_aranges
                0x00000118       0x30 ./src/lib/bcmpropertytags.o
 .debug_aranges
                0x00000148       0x48 ./src/lib/chargenerator.o
 .debug_aranges
                0x00000190       0x28 ./src/lib/debug.o
 .debug_aranges
                0x000001b8       0x48 ./src/lib/exceptionhandler.o
 .debug_aranges
                0x00000200       0x68 ./src/lib/interrupt.o
 .debug_aranges
                0x00000268       0x20 ./src/lib/libhelper.o
 .debug_aranges
                0x00000288       0x50 ./src/lib/logger.o
 .debug_aranges
                0x000002d8       0x28 ./src/lib/memio.o
 .debug_aranges
                0x00000300       0x38 ./src/lib/memory.o
 .debug_aranges
                0x00000338       0x38 ./src/lib/pagetable.o
 .debug_aranges
                0x00000370      0x130 ./src/lib/screen.o
 .debug_aranges
                0x000004a0       0x90 ./src/lib/string.o
 .debug_aranges
                0x00000530       0x50 ./src/lib/synchronize.o
 .debug_aranges
                0x00000580       0x30 ./src/lib/sysinit.o
 .debug_aranges
                0x000005b0       0xa0 ./src/lib/timer.o
 .debug_aranges
                0x00000650       0x68 ./src/lib/uspibind.o
 .debug_aranges
                0x000006b8       0x30 ./src/lib/uspienv.o
 .debug_aranges
                0x000006e8       0x70 ./src/lib/util.o
 .debug_aranges
                0x00000758       0x20 ./src/Asetup.o
 .debug_aranges
                0x00000778       0x20 ./src/Avectors.o
 .debug_aranges
                0x00000798       0x68 ./src/FrameBuffer.o
 .debug_aranges
                0x00000800       0x38 ./src/GPIO.o
 .debug_aranges
                0x00000838       0x28 ./src/Mailbox.o
 .debug_aranges
                0x00000860       0x20 ./src/SystemTimer.o
 .debug_aranges
                0x00000880       0x60 ./src/armtimer.o
 .debug_aranges
                0x000008e0      0x258 ./src/bcm2835.o
 .debug_aranges
                0x00000b38       0x40 ./src/devicenameservice.o
 .debug_aranges
                0x00000b78      0x140 ./src/dwhcidevice.o
 .debug_aranges
                0x00000cb8       0x50 ./src/dwhciframeschednper.o
 .debug_aranges
                0x00000d08       0x50 ./src/dwhciframeschednsplit.o
 .debug_aranges
                0x00000d58       0x50 ./src/dwhciframeschedper.o
 .debug_aranges
                0x00000da8       0x90 ./src/dwhciregister.o
 .debug_aranges
                0x00000e38       0x30 ./src/dwhcirootport.o
 .debug_aranges
                0x00000e68      0x120 ./src/dwhcixferstagedata.o
 .debug_aranges
                0x00000f88       0x50 ./src/keymap.o
 .debug_aranges
                0x00000fd8       0x70 ./src/macaddress.o
 .debug_aranges
                0x00001048       0x20 ./src/main.o
 .debug_aranges
                0x00001068       0x90 ./src/periph.o
 .debug_aranges
                0x000010f8       0x18 ./src/raspi.o
 .debug_aranges
                0x00001110       0x68 ./src/smsc951x.o
 .debug_aranges
                0x00001178       0x30 ./src/synchronize.o
 .debug_aranges
                0x000011a8       0x40 ./src/usbconfigparser.o
 .debug_aranges
                0x000011e8       0xa0 ./src/usbdevice.o
 .debug_aranges
                0x00001288       0x28 ./src/usbdevicefactory.o
 .debug_aranges
                0x000012b0       0x88 ./src/usbendpoint.o
 .debug_aranges
                0x00001338       0x60 ./src/usbgamepad.o
 .debug_aranges
                0x00001398       0x60 ./src/usbkeyboard.o
 .debug_aranges
                0x000013f8       0x70 ./src/usbmassdevice.o
 .debug_aranges
                0x00001468       0x48 ./src/usbmouse.o
 .debug_aranges
                0x000014b0       0x78 ./src/usbrequest.o
 .debug_aranges
                0x00001528       0x48 ./src/usbstandardhub.o
 .debug_aranges
                0x00001570       0x48 ./src/usbstring.o
 .debug_aranges
                0x000015b8       0xb0 ./src/uspilibrary.o
 .debug_aranges
                0x00001668       0x70 ./src/util.o

.debug_ranges   0x00000000     0x3ff8
 .debug_ranges  0x00000000       0x50 ./src/lib/alloc.o
 .debug_ranges  0x00000050       0x10 ./src/lib/assert.o
 .debug_ranges  0x00000060       0x58 ./src/lib/bcmframebuffer.o
 .debug_ranges  0x000000b8       0x68 ./src/lib/bcmmailbox.o
 .debug_ranges  0x00000120       0x20 ./src/lib/bcmpropertytags.o
 .debug_ranges  0x00000140       0x38 ./src/lib/chargenerator.o
 .debug_ranges  0x00000178       0x68 ./src/lib/debug.o
 .debug_ranges  0x000001e0       0x70 ./src/lib/exceptionhandler.o
 .debug_ranges  0x00000250       0xe8 ./src/lib/interrupt.o
 .debug_ranges  0x00000338       0x10 ./src/lib/libhelper.o
 .debug_ranges  0x00000348       0x98 ./src/lib/logger.o
 .debug_ranges  0x000003e0       0x18 ./src/lib/memio.o
 .debug_ranges  0x000003f8       0x28 ./src/lib/memory.o
 .debug_ranges  0x00000420       0x60 ./src/lib/pagetable.o
 .debug_ranges  0x00000480      0x700 ./src/lib/screen.o
 .debug_ranges  0x00000b80      0x410 ./src/lib/string.o
 .debug_ranges  0x00000f90       0x40 ./src/lib/synchronize.o
 .debug_ranges  0x00000fd0       0x20 ./src/lib/sysinit.o
 .debug_ranges  0x00000ff0      0x190 ./src/lib/timer.o
 .debug_ranges  0x00001180       0x58 ./src/lib/uspibind.o
 .debug_ranges  0x000011d8       0x20 ./src/lib/uspienv.o
 .debug_ranges  0x000011f8       0x60 ./src/lib/util.o
 .debug_ranges  0x00001258       0xc0 ./src/FrameBuffer.o
 .debug_ranges  0x00001318       0x40 ./src/GPIO.o
 .debug_ranges  0x00001358       0x18 ./src/Mailbox.o
 .debug_ranges  0x00001370       0x10 ./src/SystemTimer.o
 .debug_ranges  0x00001380       0x50 ./src/armtimer.o
 .debug_ranges  0x000013d0      0xda8 ./src/bcm2835.o
 .debug_ranges  0x00002178       0x48 ./src/devicenameservice.o
 .debug_ranges  0x000021c0      0x790 ./src/dwhcidevice.o
 .debug_ranges  0x00002950       0x68 ./src/dwhciframeschednper.o
 .debug_ranges  0x000029b8       0x40 ./src/dwhciframeschednsplit.o
 .debug_ranges  0x000029f8       0x70 ./src/dwhciframeschedper.o
 .debug_ranges  0x00002a68       0x80 ./src/dwhciregister.o
 .debug_ranges  0x00002ae8       0x20 ./src/dwhcirootport.o
 .debug_ranges  0x00002b08      0x168 ./src/dwhcixferstagedata.o
 .debug_ranges  0x00002c70       0x58 ./src/keymap.o
 .debug_ranges  0x00002cc8       0xb0 ./src/macaddress.o
 .debug_ranges  0x00002d78       0x10 ./src/main.o
 .debug_ranges  0x00002d88      0x128 ./src/periph.o
 .debug_ranges  0x00002eb0      0x590 ./src/smsc951x.o
 .debug_ranges  0x00003440       0x20 ./src/synchronize.o
 .debug_ranges  0x00003460       0x78 ./src/usbconfigparser.o
 .debug_ranges  0x000034d8       0xe0 ./src/usbdevice.o
 .debug_ranges  0x000035b8       0xa8 ./src/usbdevicefactory.o
 .debug_ranges  0x00003660       0x90 ./src/usbendpoint.o
 .debug_ranges  0x000036f0      0x2e0 ./src/usbgamepad.o
 .debug_ranges  0x000039d0       0x68 ./src/usbkeyboard.o
 .debug_ranges  0x00003a38      0x208 ./src/usbmassdevice.o
 .debug_ranges  0x00003c40       0x50 ./src/usbmouse.o
 .debug_ranges  0x00003c90       0x68 ./src/usbrequest.o
 .debug_ranges  0x00003cf8      0x130 ./src/usbstandardhub.o
 .debug_ranges  0x00003e28       0xa0 ./src/usbstring.o
 .debug_ranges  0x00003ec8       0xd0 ./src/uspilibrary.o
 .debug_ranges  0x00003f98       0x60 ./src/util.o

.debug_macro    0x00000000     0x57f3
 .debug_macro   0x00000000       0x79 ./src/lib/alloc.o
 .debug_macro   0x00000079      0x862 ./src/lib/alloc.o
 .debug_macro   0x000008db       0x10 ./src/lib/alloc.o
 .debug_macro   0x000008eb       0x28 ./src/lib/alloc.o
 .debug_macro   0x00000913       0x16 ./src/lib/alloc.o
 .debug_macro   0x00000929       0x40 ./src/lib/alloc.o
 .debug_macro   0x00000969       0x76 ./src/lib/alloc.o
 .debug_macro   0x000009df       0x10 ./src/lib/alloc.o
 .debug_macro   0x000009ef       0xd1 ./src/lib/assert.o
 .debug_macro   0x00000ac0      0x25b ./src/lib/assert.o
 .debug_macro   0x00000d1b       0x40 ./src/lib/assert.o
 .debug_macro   0x00000d5b      0x1d8 ./src/lib/assert.o
 .debug_macro   0x00000f33       0x1c ./src/lib/assert.o
 .debug_macro   0x00000f4f       0x1c ./src/lib/assert.o
 .debug_macro   0x00000f6b       0x16 ./src/lib/assert.o
 .debug_macro   0x00000f81       0x97 ./src/lib/bcmframebuffer.o
 .debug_macro   0x00001018       0xa0 ./src/lib/bcmframebuffer.o
 .debug_macro   0x000010b8       0xa5 ./src/lib/bcmmailbox.o
 .debug_macro   0x0000115d       0x90 ./src/lib/bcmpropertytags.o
 .debug_macro   0x000011ed       0x4e ./src/lib/chargenerator.o
 .debug_macro   0x0000123b       0x1c ./src/lib/chargenerator.o
 .debug_macro   0x00001257       0xc8 ./src/lib/debug.o
 .debug_macro   0x0000131f       0xf1 ./src/lib/exceptionhandler.o
 .debug_macro   0x00001410       0x22 ./src/lib/exceptionhandler.o
 .debug_macro   0x00001432       0x16 ./src/lib/exceptionhandler.o
 .debug_macro   0x00001448       0x9b ./src/lib/interrupt.o
 .debug_macro   0x000014e3       0x45 ./src/lib/libhelper.o
 .debug_macro   0x00001528       0xd6 ./src/lib/logger.o
 .debug_macro   0x000015fe       0x46 ./src/lib/logger.o
 .debug_macro   0x00001644       0x24 ./src/lib/memio.o
 .debug_macro   0x00001668       0xa6 ./src/lib/memory.o
 .debug_macro   0x0000170e       0xe9 ./src/lib/memory.o
 .debug_macro   0x000017f7       0x76 ./src/lib/pagetable.o
 .debug_macro   0x0000186d       0x90 ./src/lib/screen.o
 .debug_macro   0x000018fd       0x55 ./src/lib/string.o
 .debug_macro   0x00001952       0x8d ./src/lib/synchronize.o
 .debug_macro   0x000019df       0x7a ./src/lib/sysinit.o
 .debug_macro   0x00001a59       0x16 ./src/lib/sysinit.o
 .debug_macro   0x00001a6f      0x17e ./src/lib/sysinit.o
 .debug_macro   0x00001bed       0xf7 ./src/lib/timer.o
 .debug_macro   0x00001ce4      0x261 ./src/lib/timer.o
 .debug_macro   0x00001f45      0x101 ./src/lib/uspibind.o
 .debug_macro   0x00002046       0x40 ./src/lib/uspibind.o
 .debug_macro   0x00002086      0x113 ./src/lib/uspienv.o
 .debug_macro   0x00002199       0x24 ./src/lib/util.o
 .debug_macro   0x000021bd       0x57 ./src/FrameBuffer.o
 .debug_macro   0x00002214       0x76 ./src/FrameBuffer.o
 .debug_macro   0x0000228a       0x64 ./src/FrameBuffer.o
 .debug_macro   0x000022ee       0x28 ./src/FrameBuffer.o
 .debug_macro   0x00002316       0x22 ./src/FrameBuffer.o
 .debug_macro   0x00002338      0x1c0 ./src/FrameBuffer.o
 .debug_macro   0x000024f8       0x3b ./src/GPIO.o
 .debug_macro   0x00002533      0x1ba ./src/GPIO.o
 .debug_macro   0x000026ed       0x4c ./src/GPIO.o
 .debug_macro   0x00002739       0x44 ./src/Mailbox.o
 .debug_macro   0x0000277d       0x1c ./src/Mailbox.o
 .debug_macro   0x00002799       0x2c ./src/SystemTimer.o
 .debug_macro   0x000027c5       0x4e ./src/armtimer.o
 .debug_macro   0x00002813       0x82 ./src/armtimer.o
 .debug_macro   0x00002895       0x2e ./src/armtimer.o
 .debug_macro   0x000028c3       0x1a ./src/bcm2835.o
 .debug_macro   0x000028dd      0x4b8 ./src/bcm2835.o
 .debug_macro   0x00002d95       0x52 ./src/devicenameservice.o
 .debug_macro   0x00002de7       0x16 ./src/devicenameservice.o
 .debug_macro   0x00002dfd       0x34 ./src/devicenameservice.o
 .debug_macro   0x00002e31       0x10 ./src/devicenameservice.o
 .debug_macro   0x00002e41      0x114 ./src/dwhcidevice.o
 .debug_macro   0x00002f55       0x28 ./src/dwhcidevice.o
 .debug_macro   0x00002f7d       0x8e ./src/dwhcidevice.o
 .debug_macro   0x0000300b       0x1c ./src/dwhcidevice.o
 .debug_macro   0x00003027       0x3a ./src/dwhcidevice.o
 .debug_macro   0x00003061      0x48f ./src/dwhcidevice.o
 .debug_macro   0x000034f0       0x3a ./src/dwhcidevice.o
 .debug_macro   0x0000352a       0x68 ./src/dwhciframeschednper.o
 .debug_macro   0x00003592       0x6e ./src/dwhciframeschednsplit.o
 .debug_macro   0x00003600       0x7c ./src/dwhciframeschedper.o
 .debug_macro   0x0000367c       0x58 ./src/dwhciregister.o
 .debug_macro   0x000036d4      0x112 ./src/dwhcirootport.o
 .debug_macro   0x000037e6       0x88 ./src/dwhcirootport.o
 .debug_macro   0x0000386e       0xdd ./src/dwhcixferstagedata.o
 .debug_macro   0x0000394b       0x76 ./src/keymap.o
 .debug_macro   0x000039c1       0x1c ./src/keymap.o
 .debug_macro   0x000039dd       0xa6 ./src/keymap.o
 .debug_macro   0x00003a83       0x5e ./src/macaddress.o
 .debug_macro   0x00003ae1      0x127 ./src/main.o
 .debug_macro   0x00003c08       0x58 ./src/main.o
 .debug_macro   0x00003c60       0x22 ./src/main.o
 .debug_macro   0x00003c82       0x35 ./src/main.o
 .debug_macro   0x00003cb7       0x9c ./src/main.o
 .debug_macro   0x00003d53      0x16d ./src/main.o
 .debug_macro   0x00003ec0       0x4a ./src/main.o
 .debug_macro   0x00003f0a       0x52 ./src/main.o
 .debug_macro   0x00003f5c       0x16 ./src/main.o
 .debug_macro   0x00003f72       0x43 ./src/main.o
 .debug_macro   0x00003fb5      0x180 ./src/main.o
 .debug_macro   0x00004135      0x27a ./src/main.o
 .debug_macro   0x000043af       0x10 ./src/main.o
 .debug_macro   0x000043bf       0x35 ./src/main.o
 .debug_macro   0x000043f4       0x88 ./src/main.o
 .debug_macro   0x0000447c       0x32 ./src/periph.o
 .debug_macro   0x000044ae       0x5e ./src/periph.o
 .debug_macro   0x0000450c       0x23 ./src/raspi.o
 .debug_macro   0x0000452f      0x2cc ./src/smsc951x.o
 .debug_macro   0x000047fb       0x10 ./src/smsc951x.o
 .debug_macro   0x0000480b       0x3a ./src/smsc951x.o
 .debug_macro   0x00004845       0x5d ./src/synchronize.o
 .debug_macro   0x000048a2       0x34 ./src/synchronize.o
 .debug_macro   0x000048d6       0x54 ./src/usbconfigparser.o
 .debug_macro   0x0000492a       0xf4 ./src/usbdevice.o
 .debug_macro   0x00004a1e      0x16a ./src/usbdevicefactory.o
 .debug_macro   0x00004b88       0x22 ./src/usbdevicefactory.o
 .debug_macro   0x00004baa       0x22 ./src/usbdevicefactory.o
 .debug_macro   0x00004bcc       0x10 ./src/usbdevicefactory.o
 .debug_macro   0x00004bdc       0xac ./src/usbdevicefactory.o
 .debug_macro   0x00004c88       0xba ./src/usbdevicefactory.o
 .debug_macro   0x00004d42       0x76 ./src/usbendpoint.o
 .debug_macro   0x00004db8      0x210 ./src/usbgamepad.o
 .debug_macro   0x00004fc8      0x134 ./src/usbkeyboard.o
 .debug_macro   0x000050fc      0x186 ./src/usbmassdevice.o
 .debug_macro   0x00005282       0x1c ./src/usbmassdevice.o
 .debug_macro   0x0000529e      0x122 ./src/usbmouse.o
 .debug_macro   0x000053c0       0x80 ./src/usbrequest.o
 .debug_macro   0x00005440      0x10e ./src/usbstandardhub.o
 .debug_macro   0x0000554e       0xfa ./src/usbstring.o
 .debug_macro   0x00005648      0x179 ./src/uspilibrary.o
 .debug_macro   0x000057c1       0x32 ./src/util.o

.debug_line     0x00000000     0xafb8
 .debug_line    0x00000000      0x1d5 ./src/lib/alloc.o
 .debug_line    0x000001d5      0x18a ./src/lib/assert.o
 .debug_line    0x0000035f      0x26d ./src/lib/bcmframebuffer.o
 .debug_line    0x000005cc      0x1fe ./src/lib/bcmmailbox.o
 .debug_line    0x000007ca      0x1e1 ./src/lib/bcmpropertytags.o
 .debug_line    0x000009ab      0x164 ./src/lib/chargenerator.o
 .debug_line    0x00000b0f      0x198 ./src/lib/debug.o
 .debug_line    0x00000ca7      0x28c ./src/lib/exceptionhandler.o
 .debug_line    0x00000f33      0x2ca ./src/lib/interrupt.o
 .debug_line    0x000011fd       0xea ./src/lib/libhelper.o
 .debug_line    0x000012e7      0x273 ./src/lib/logger.o
 .debug_line    0x0000155a       0x9c ./src/lib/memio.o
 .debug_line    0x000015f6      0x215 ./src/lib/memory.o
 .debug_line    0x0000180b      0x1ba ./src/lib/pagetable.o
 .debug_line    0x000019c5      0x7bb ./src/lib/screen.o
 .debug_line    0x00002180      0x6c1 ./src/lib/string.o
 .debug_line    0x00002841      0x193 ./src/lib/synchronize.o
 .debug_line    0x000029d4      0x135 ./src/lib/sysinit.o
 .debug_line    0x00002b09      0x45a ./src/lib/timer.o
 .debug_line    0x00002f63      0x2ae ./src/lib/uspibind.o
 .debug_line    0x00003211      0x208 ./src/lib/uspienv.o
 .debug_line    0x00003419      0x19d ./src/lib/util.o
 .debug_line    0x000035b6       0x7d ./src/Asetup.o
 .debug_line    0x00003633       0x49 ./src/Avectors.o
 .debug_line    0x0000367c      0x2ba ./src/FrameBuffer.o
 .debug_line    0x00003936       0xcf ./src/GPIO.o
 .debug_line    0x00003a05       0xaf ./src/Mailbox.o
 .debug_line    0x00003ab4       0x73 ./src/SystemTimer.o
 .debug_line    0x00003b27      0x123 ./src/armtimer.o
 .debug_line    0x00003c4a     0x10b6 ./src/bcm2835.o
 .debug_line    0x00004d00      0x192 ./src/devicenameservice.o
 .debug_line    0x00004e92      0xd87 ./src/dwhcidevice.o
 .debug_line    0x00005c19      0x1bf ./src/dwhciframeschednper.o
 .debug_line    0x00005dd8      0x185 ./src/dwhciframeschednsplit.o
 .debug_line    0x00005f5d      0x205 ./src/dwhciframeschedper.o
 .debug_line    0x00006162      0x275 ./src/dwhciregister.o
 .debug_line    0x000063d7      0x296 ./src/dwhcirootport.o
 .debug_line    0x0000666d      0x6ce ./src/dwhcixferstagedata.o
 .debug_line    0x00006d3b      0x1e5 ./src/keymap.o
 .debug_line    0x00006f20      0x20b ./src/macaddress.o
 .debug_line    0x0000712b      0x2f8 ./src/main.o
 .debug_line    0x00007423      0x1f5 ./src/periph.o
 .debug_line    0x00007618       0x49 ./src/raspi.o
 .debug_line    0x00007661      0x674 ./src/smsc951x.o
 .debug_line    0x00007cd5       0xb7 ./src/synchronize.o
 .debug_line    0x00007d8c      0x180 ./src/usbconfigparser.o
 .debug_line    0x00007f0c      0x54d ./src/usbdevice.o
 .debug_line    0x00008459      0x2de ./src/usbdevicefactory.o
 .debug_line    0x00008737      0x302 ./src/usbendpoint.o
 .debug_line    0x00008a39      0x608 ./src/usbgamepad.o
 .debug_line    0x00009041      0x3f7 ./src/usbkeyboard.o
 .debug_line    0x00009438      0x6ab ./src/usbmassdevice.o
 .debug_line    0x00009ae3      0x343 ./src/usbmouse.o
 .debug_line    0x00009e26      0x28b ./src/usbrequest.o
 .debug_line    0x0000a0b1      0x47c ./src/usbstandardhub.o
 .debug_line    0x0000a52d      0x347 ./src/usbstring.o
 .debug_line    0x0000a874      0x5b7 ./src/uspilibrary.o
 .debug_line    0x0000ae2b      0x18d ./src/util.o

.debug_str      0x00000000    0x1407b
 .debug_str     0x00000000     0x2c9c ./src/lib/alloc.o
                               0x2d79 (size before relaxing)
 .debug_str     0x00002c9c     0x1fb7 ./src/lib/assert.o
                               0x48f0 (size before relaxing)
 .debug_str     0x00004c53      0x4d2 ./src/lib/bcmframebuffer.o
                               0x3faf (size before relaxing)
 .debug_str     0x00005125       0x81 ./src/lib/bcmmailbox.o
                               0x46ed (size before relaxing)
 .debug_str     0x000051a6       0xd1 ./src/lib/bcmpropertytags.o
                               0x3e61 (size before relaxing)
 .debug_str     0x00005277      0x122 ./src/lib/chargenerator.o
                               0x2745 (size before relaxing)
 .debug_str     0x00005399       0x53 ./src/lib/debug.o
                               0x4865 (size before relaxing)
 .debug_str     0x000053ec      0x1cf ./src/lib/exceptionhandler.o
                               0x4d04 (size before relaxing)
 .debug_str     0x000055bb      0x2f8 ./src/lib/interrupt.o
                               0x48fb (size before relaxing)
 .debug_str     0x000058b3       0x4c ./src/lib/libhelper.o
                               0x27a4 (size before relaxing)
 .debug_str     0x000058ff       0xa4 ./src/lib/logger.o
                               0x4bda (size before relaxing)
 .debug_str     0x000059a3       0x13 ./src/lib/memio.o
                               0x258a (size before relaxing)
 .debug_str     0x000059b6      0x758 ./src/lib/memory.o
                               0x44ef (size before relaxing)
 .debug_str     0x0000610e       0x7e ./src/lib/pagetable.o
                               0x325c (size before relaxing)
 .debug_str     0x0000618c      0x408 ./src/lib/screen.o
                               0x427c (size before relaxing)
 .debug_str     0x00006594      0x148 ./src/lib/string.o
                               0x28da (size before relaxing)
 .debug_str     0x000066dc      0x185 ./src/lib/synchronize.o
                               0x2b3d (size before relaxing)
 .debug_str     0x00006861      0xc49 ./src/lib/sysinit.o
                               0x455e (size before relaxing)
 .debug_str     0x000074aa      0x15a ./src/lib/timer.o
                               0x4d83 (size before relaxing)
 .debug_str     0x00007604      0x151 ./src/lib/uspibind.o
                               0x4ee1 (size before relaxing)
 .debug_str     0x00007755       0xa2 ./src/lib/uspienv.o
                               0x5051 (size before relaxing)
 .debug_str     0x000077f7       0x6c ./src/lib/util.o
                               0x2658 (size before relaxing)
 .debug_str     0x00007863      0xbd6 ./src/FrameBuffer.o
                               0x3184 (size before relaxing)
 .debug_str     0x00008439      0x149 ./src/GPIO.o
                               0x2d94 (size before relaxing)
 .debug_str     0x00008582       0x2f ./src/Mailbox.o
                               0x2e23 (size before relaxing)
 .debug_str     0x000085b1       0x35 ./src/SystemTimer.o
                               0x28ec (size before relaxing)
 .debug_str     0x000085e6      0x4f2 ./src/armtimer.o
                               0x2fff (size before relaxing)
 .debug_str     0x00008ad8     0x1f65 ./src/bcm2835.o
                               0x44b0 (size before relaxing)
 .debug_str     0x0000aa3d      0x1ec ./src/devicenameservice.o
                               0x2864 (size before relaxing)
 .debug_str     0x0000ac29     0x38fe ./src/dwhcidevice.o
                               0x66ac (size before relaxing)
 .debug_str     0x0000e527      0x1ec ./src/dwhciframeschednper.o
                               0x4c11 (size before relaxing)
 .debug_str     0x0000e713      0x18b ./src/dwhciframeschednsplit.o
                               0x4bfd (size before relaxing)
 .debug_str     0x0000e89e      0x14c ./src/dwhciframeschedper.o
                               0x4c91 (size before relaxing)
 .debug_str     0x0000e9ea       0x6e ./src/dwhciregister.o
                               0x4ab4 (size before relaxing)
 .debug_str     0x0000ea58      0x2ed ./src/dwhcirootport.o
                               0x5900 (size before relaxing)
 .debug_str     0x0000ed45      0x150 ./src/dwhcixferstagedata.o
                               0x5c3c (size before relaxing)
 .debug_str     0x0000ee95      0x6a6 ./src/keymap.o
                               0x2edf (size before relaxing)
 .debug_str     0x0000f53b       0xff ./src/macaddress.o
                               0x293c (size before relaxing)
 .debug_str     0x0000f63a     0x2576 ./src/main.o
                               0x5bb8 (size before relaxing)
 .debug_str     0x00011bb0       0x87 ./src/periph.o
                               0x2c70 (size before relaxing)
 .debug_str     0x00011c37        0xf ./src/raspi.o
                               0x27d5 (size before relaxing)
 .debug_str     0x00011c46      0x899 ./src/smsc951x.o
                               0x60eb (size before relaxing)
 .debug_str     0x000124df       0x15 ./src/synchronize.o
                               0x29fe (size before relaxing)
 .debug_str     0x000124f4      0x114 ./src/usbconfigparser.o
                               0x2cab (size before relaxing)
 .debug_str     0x00012608      0x1bf ./src/usbdevice.o
                               0x5a00 (size before relaxing)
 .debug_str     0x000127c7      0x51b ./src/usbdevicefactory.o
                               0x6173 (size before relaxing)
 .debug_str     0x00012ce2       0x3a ./src/usbendpoint.o
                               0x2fe2 (size before relaxing)
 .debug_str     0x00012d1c      0x55d ./src/usbgamepad.o
                               0x629f (size before relaxing)
 .debug_str     0x00013279      0x20d ./src/usbkeyboard.o
                               0x61d3 (size before relaxing)
 .debug_str     0x00013486      0x701 ./src/usbmassdevice.o
                               0x6138 (size before relaxing)
 .debug_str     0x00013b87       0xa8 ./src/usbmouse.o
                               0x5c15 (size before relaxing)
 .debug_str     0x00013c2f       0x1d ./src/usbrequest.o
                               0x30a8 (size before relaxing)
 .debug_str     0x00013c4c       0xbd ./src/usbstandardhub.o
                               0x5c09 (size before relaxing)
 .debug_str     0x00013d09       0x7b ./src/usbstring.o
                               0x5740 (size before relaxing)
 .debug_str     0x00013d84      0x2e9 ./src/uspilibrary.o
                               0x6612 (size before relaxing)
 .debug_str     0x0001406d        0xe ./src/util.o
                               0x27af (size before relaxing)

.comment        0x00000000       0x70
 .comment       0x00000000       0x70 ./src/lib/alloc.o
                                 0x71 (size before relaxing)
 .comment       0x00000000       0x71 ./src/lib/assert.o
 .comment       0x00000000       0x71 ./src/lib/bcmframebuffer.o
 .comment       0x00000000       0x71 ./src/lib/bcmmailbox.o
 .comment       0x00000000       0x71 ./src/lib/bcmpropertytags.o
 .comment       0x00000000       0x71 ./src/lib/chargenerator.o
 .comment       0x00000000       0x71 ./src/lib/debug.o
 .comment       0x00000000       0x71 ./src/lib/exceptionhandler.o
 .comment       0x00000000       0x71 ./src/lib/interrupt.o
 .comment       0x00000000       0x71 ./src/lib/libhelper.o
 .comment       0x00000000       0x71 ./src/lib/logger.o
 .comment       0x00000000       0x71 ./src/lib/memio.o
 .comment       0x00000000       0x71 ./src/lib/memory.o
 .comment       0x00000000       0x71 ./src/lib/pagetable.o
 .comment       0x00000000       0x71 ./src/lib/screen.o
 .comment       0x00000000       0x71 ./src/lib/string.o
 .comment       0x00000000       0x71 ./src/lib/synchronize.o
 .comment       0x00000000       0x71 ./src/lib/sysinit.o
 .comment       0x00000000       0x71 ./src/lib/timer.o
 .comment       0x00000000       0x71 ./src/lib/uspibind.o
 .comment       0x00000000       0x71 ./src/lib/uspienv.o
 .comment       0x00000000       0x71 ./src/lib/util.o
 .comment       0x00000000       0x71 ./src/FrameBuffer.o
 .comment       0x00000000       0x71 ./src/GPIO.o
 .comment       0x00000000       0x71 ./src/Mailbox.o
 .comment       0x00000000       0x71 ./src/SystemTimer.o
 .comment       0x00000000       0x71 ./src/armtimer.o
 .comment       0x00000000       0x71 ./src/bcm2835.o
 .comment       0x00000000       0x71 ./src/devicenameservice.o
 .comment       0x00000000       0x71 ./src/dwhcidevice.o
 .comment       0x00000000       0x71 ./src/dwhciframeschednper.o
 .comment       0x00000000       0x71 ./src/dwhciframeschednsplit.o
 .comment       0x00000000       0x71 ./src/dwhciframeschedper.o
 .comment       0x00000000       0x71 ./src/dwhciregister.o
 .comment       0x00000000       0x71 ./src/dwhcirootport.o
 .comment       0x00000000       0x71 ./src/dwhcixferstagedata.o
 .comment       0x00000000       0x71 ./src/keymap.o
 .comment       0x00000000       0x71 ./src/macaddress.o
 .comment       0x00000000       0x71 ./src/main.o
 .comment       0x00000000       0x71 ./src/periph.o
 .comment       0x00000000       0x71 ./src/raspi.o
 .comment       0x00000000       0x71 ./src/smsc951x.o
 .comment       0x00000000       0x71 ./src/synchronize.o
 .comment       0x00000000       0x71 ./src/usbconfigparser.o
 .comment       0x00000000       0x71 ./src/usbdevice.o
 .comment       0x00000000       0x71 ./src/usbdevicefactory.o
 .comment       0x00000000       0x71 ./src/usbendpoint.o
 .comment       0x00000000       0x71 ./src/usbgamepad.o
 .comment       0x00000000       0x71 ./src/usbkeyboard.o
 .comment       0x00000000       0x71 ./src/usbmassdevice.o
 .comment       0x00000000       0x71 ./src/usbmouse.o
 .comment       0x00000000       0x71 ./src/usbrequest.o
 .comment       0x00000000       0x71 ./src/usbstandardhub.o
 .comment       0x00000000       0x71 ./src/usbstring.o
 .comment       0x00000000       0x71 ./src/uspilibrary.o
 .comment       0x00000000       0x71 ./src/util.o

.ARM.attributes
                0x00000000       0x3b
 .ARM.attributes
                0x00000000       0x3d ./src/lib/alloc.o
 .ARM.attributes
                0x0000003d       0x3d ./src/lib/assert.o
 .ARM.attributes
                0x0000007a       0x3d ./src/lib/bcmframebuffer.o
 .ARM.attributes
                0x000000b7       0x3d ./src/lib/bcmmailbox.o
 .ARM.attributes
                0x000000f4       0x3d ./src/lib/bcmpropertytags.o
 .ARM.attributes
                0x00000131       0x3d ./src/lib/chargenerator.o
 .ARM.attributes
                0x0000016e       0x3d ./src/lib/debug.o
 .ARM.attributes
                0x000001ab       0x3d ./src/lib/exceptionhandler.o
 .ARM.attributes
                0x000001e8       0x3d ./src/lib/interrupt.o
 .ARM.attributes
                0x00000225       0x3d ./src/lib/libhelper.o
 .ARM.attributes
                0x00000262       0x3d ./src/lib/logger.o
 .ARM.attributes
                0x0000029f       0x3d ./src/lib/memio.o
 .ARM.attributes
                0x000002dc       0x3d ./src/lib/memory.o
 .ARM.attributes
                0x00000319       0x3d ./src/lib/pagetable.o
 .ARM.attributes
                0x00000356       0x3d ./src/lib/screen.o
 .ARM.attributes
                0x00000393       0x3d ./src/lib/string.o
 .ARM.attributes
                0x000003d0       0x3d ./src/lib/synchronize.o
 .ARM.attributes
                0x0000040d       0x3d ./src/lib/sysinit.o
 .ARM.attributes
                0x0000044a       0x3d ./src/lib/timer.o
 .ARM.attributes
                0x00000487       0x3d ./src/lib/uspibind.o
 .ARM.attributes
                0x000004c4       0x3d ./src/lib/uspienv.o
 .ARM.attributes
                0x00000501       0x3d ./src/lib/util.o
 .ARM.attributes
                0x0000053e       0x29 ./src/Asetup.o
 .ARM.attributes
                0x00000567       0x29 ./src/Avectors.o
 .ARM.attributes
                0x00000590       0x3d ./src/FrameBuffer.o
 .ARM.attributes
                0x000005cd       0x3d ./src/GPIO.o
 .ARM.attributes
                0x0000060a       0x3d ./src/Mailbox.o
 .ARM.attributes
                0x00000647       0x3d ./src/SystemTimer.o
 .ARM.attributes
                0x00000684       0x3d ./src/armtimer.o
 .ARM.attributes
                0x000006c1       0x3d ./src/bcm2835.o
 .ARM.attributes
                0x000006fe       0x3d ./src/devicenameservice.o
 .ARM.attributes
                0x0000073b       0x3d ./src/dwhcidevice.o
 .ARM.attributes
                0x00000778       0x3d ./src/dwhciframeschednper.o
 .ARM.attributes
                0x000007b5       0x3d ./src/dwhciframeschednsplit.o
 .ARM.attributes
                0x000007f2       0x3d ./src/dwhciframeschedper.o
 .ARM.attributes
                0x0000082f       0x3d ./src/dwhciregister.o
 .ARM.attributes
                0x0000086c       0x3d ./src/dwhcirootport.o
 .ARM.attributes
                0x000008a9       0x3d ./src/dwhcixferstagedata.o
 .ARM.attributes
                0x000008e6       0x3d ./src/keymap.o
 .ARM.attributes
                0x00000923       0x3d ./src/macaddress.o
 .ARM.attributes
                0x00000960       0x3d ./src/main.o
 .ARM.attributes
                0x0000099d       0x3d ./src/periph.o
 .ARM.attributes
                0x000009da       0x3d ./src/raspi.o
 .ARM.attributes
                0x00000a17       0x3d ./src/smsc951x.o
 .ARM.attributes
                0x00000a54       0x3d ./src/synchronize.o
 .ARM.attributes
                0x00000a91       0x3d ./src/usbconfigparser.o
 .ARM.attributes
                0x00000ace       0x3d ./src/usbdevice.o
 .ARM.attributes
                0x00000b0b       0x3d ./src/usbdevicefactory.o
 .ARM.attributes
                0x00000b48       0x3d ./src/usbendpoint.o
 .ARM.attributes
                0x00000b85       0x3d ./src/usbgamepad.o
 .ARM.attributes
                0x00000bc2       0x3d ./src/usbkeyboard.o
 .ARM.attributes
                0x00000bff       0x3d ./src/usbmassdevice.o
 .ARM.attributes
                0x00000c3c       0x3d ./src/usbmouse.o
 .ARM.attributes
                0x00000c79       0x3d ./src/usbrequest.o
 .ARM.attributes
                0x00000cb6       0x3d ./src/usbstandardhub.o
 .ARM.attributes
                0x00000cf3       0x3d ./src/usbstring.o
 .ARM.attributes
                0x00000d30       0x3d ./src/uspilibrary.o
 .ARM.attributes
                0x00000d6d       0x3d ./src/util.o
 .ARM.attributes
                0x00000daa       0x30 c:/program files (x86)/gnu tools arm embedded/4.9 2015q1/bin/../lib/gcc/arm-none-eabi/4.9.3/../../../../arm-none-eabi/lib\libc.a(lib_a-rand.o)
 .ARM.attributes
                0x00000dda       0x30 c:/program files (x86)/gnu tools arm embedded/4.9 2015q1/bin/../lib/gcc/arm-none-eabi/4.9.3/../../../../arm-none-eabi/lib\libc.a(lib_a-impure.o)
 .ARM.attributes
                0x00000e0a       0x18 c:/program files (x86)/gnu tools arm embedded/4.9 2015q1/bin/../lib/gcc/arm-none-eabi/4.9.3\libgcc.a(_aeabi_ldivmod.o)
 .ARM.attributes
                0x00000e22       0x30 c:/program files (x86)/gnu tools arm embedded/4.9 2015q1/bin/../lib/gcc/arm-none-eabi/4.9.3\libgcc.a(bpabi.o)
 .ARM.attributes
                0x00000e52       0x18 c:/program files (x86)/gnu tools arm embedded/4.9 2015q1/bin/../lib/gcc/arm-none-eabi/4.9.3\libgcc.a(_dvmd_tls.o)
 .ARM.attributes
                0x00000e6a       0x30 c:/program files (x86)/gnu tools arm embedded/4.9 2015q1/bin/../lib/gcc/arm-none-eabi/4.9.3\libgcc.a(_divdi3.o)
 .ARM.attributes
                0x00000e9a       0x30 c:/program files (x86)/gnu tools arm embedded/4.9 2015q1/bin/../lib/gcc/arm-none-eabi/4.9.3\libgcc.a(_udivdi3.o)
 .ARM.attributes
                0x00000eca       0x18 c:/program files (x86)/gnu tools arm embedded/4.9 2015q1/bin/../lib/gcc/arm-none-eabi/4.9.3\libgcc.a(_clzdi2.o)
 .ARM.attributes
                0x00000ee2       0x18 c:/program files (x86)/gnu tools arm embedded/4.9 2015q1/bin/../lib/gcc/arm-none-eabi/4.9.3\libgcc.a(_clzsi2.o)

.debug_frame    0x00000000     0x43dc
 .debug_frame   0x00000000       0xc0 ./src/lib/alloc.o
 .debug_frame   0x000000c0       0x34 ./src/lib/assert.o
 .debug_frame   0x000000f4      0x120 ./src/lib/bcmframebuffer.o
 .debug_frame   0x00000214       0xb0 ./src/lib/bcmmailbox.o
 .debug_frame   0x000002c4       0x8c ./src/lib/bcmpropertytags.o
 .debug_frame   0x00000350       0xa0 ./src/lib/chargenerator.o
 .debug_frame   0x000003f0       0x64 ./src/lib/debug.o
 .debug_frame   0x00000454       0xd4 ./src/lib/exceptionhandler.o
 .debug_frame   0x00000528      0x110 ./src/lib/interrupt.o
 .debug_frame   0x00000638       0x30 ./src/lib/libhelper.o
 .debug_frame   0x00000668       0xe8 ./src/lib/logger.o
 .debug_frame   0x00000750       0x30 ./src/lib/memio.o
 .debug_frame   0x00000780       0x88 ./src/lib/memory.o
 .debug_frame   0x00000808       0x74 ./src/lib/pagetable.o
 .debug_frame   0x0000087c      0x404 ./src/lib/screen.o
 .debug_frame   0x00000c80      0x214 ./src/lib/string.o
 .debug_frame   0x00000e94       0x88 ./src/lib/synchronize.o
 .debug_frame   0x00000f1c       0x50 ./src/lib/sysinit.o
 .debug_frame   0x00000f6c      0x21c ./src/lib/timer.o
 .debug_frame   0x00001188      0x144 ./src/lib/uspibind.o
 .debug_frame   0x000012cc       0x5c ./src/lib/uspienv.o
 .debug_frame   0x00001328       0xe0 ./src/lib/util.o
 .debug_frame   0x00001408      0x140 ./src/FrameBuffer.o
 .debug_frame   0x00001548       0x70 ./src/GPIO.o
 .debug_frame   0x000015b8       0x48 ./src/Mailbox.o
 .debug_frame   0x00001600       0x2c ./src/SystemTimer.o
 .debug_frame   0x0000162c       0xd4 ./src/armtimer.o
 .debug_frame   0x00001700      0x5f0 ./src/bcm2835.o
 .debug_frame   0x00001cf0       0x9c ./src/devicenameservice.o
 .debug_frame   0x00001d8c      0x590 ./src/dwhcidevice.o
 .debug_frame   0x0000231c       0xc0 ./src/dwhciframeschednper.o
 .debug_frame   0x000023dc       0xac ./src/dwhciframeschednsplit.o
 .debug_frame   0x00002488       0xe0 ./src/dwhciframeschedper.o
 .debug_frame   0x00002568      0x1ac ./src/dwhciregister.o
 .debug_frame   0x00002714       0x7c ./src/dwhcirootport.o
 .debug_frame   0x00002790      0x3a0 ./src/dwhcixferstagedata.o
 .debug_frame   0x00002b30       0xec ./src/keymap.o
 .debug_frame   0x00002c1c      0x138 ./src/macaddress.o
 .debug_frame   0x00002d54       0x34 ./src/main.o
 .debug_frame   0x00002d88      0x198 ./src/periph.o
 .debug_frame   0x00002f20      0x198 ./src/smsc951x.o
 .debug_frame   0x000030b8       0x48 ./src/synchronize.o
 .debug_frame   0x00003100       0xa4 ./src/usbconfigparser.o
 .debug_frame   0x000031a4      0x238 ./src/usbdevice.o
 .debug_frame   0x000033dc       0x44 ./src/usbdevicefactory.o
 .debug_frame   0x00003420      0x19c ./src/usbendpoint.o
 .debug_frame   0x000035bc      0x180 ./src/usbgamepad.o
 .debug_frame   0x0000373c      0x14c ./src/usbkeyboard.o
 .debug_frame   0x00003888      0x1cc ./src/usbmassdevice.o
 .debug_frame   0x00003a54      0x100 ./src/usbmouse.o
 .debug_frame   0x00003b54      0x178 ./src/usbrequest.o
 .debug_frame   0x00003ccc      0x108 ./src/usbstandardhub.o
 .debug_frame   0x00003dd4      0x10c ./src/usbstring.o
 .debug_frame   0x00003ee0      0x2c8 ./src/uspilibrary.o
 .debug_frame   0x000041a8       0xe0 ./src/util.o
 .debug_frame   0x00004288       0x3c c:/program files (x86)/gnu tools arm embedded/4.9 2015q1/bin/../lib/gcc/arm-none-eabi/4.9.3/../../../../arm-none-eabi/lib\libc.a(lib_a-rand.o)
 .debug_frame   0x000042c4       0x28 c:/program files (x86)/gnu tools arm embedded/4.9 2015q1/bin/../lib/gcc/arm-none-eabi/4.9.3\libgcc.a(_aeabi_ldivmod.o)
 .debug_frame   0x000042ec       0x68 c:/program files (x86)/gnu tools arm embedded/4.9 2015q1/bin/../lib/gcc/arm-none-eabi/4.9.3\libgcc.a(bpabi.o)
 .debug_frame   0x00004354       0x48 c:/program files (x86)/gnu tools arm embedded/4.9 2015q1/bin/../lib/gcc/arm-none-eabi/4.9.3\libgcc.a(_divdi3.o)
 .debug_frame   0x0000439c       0x40 c:/program files (x86)/gnu tools arm embedded/4.9 2015q1/bin/../lib/gcc/arm-none-eabi/4.9.3\libgcc.a(_udivdi3.o)
